
bomb:     file format elf32-i386


Disassembly of section .init:

08048748 <_init>:
 8048748:	55                   	push   %ebp
 8048749:	89 e5                	mov    %esp,%ebp
 804874b:	53                   	push   %ebx
 804874c:	83 ec 04             	sub    $0x4,%esp
 804874f:	e8 00 00 00 00       	call   8048754 <_init+0xc>
 8048754:	5b                   	pop    %ebx
 8048755:	81 c3 ac 29 00 00    	add    $0x29ac,%ebx
 804875b:	8b 93 fc ff ff ff    	mov    -0x4(%ebx),%edx
 8048761:	85 d2                	test   %edx,%edx
 8048763:	74 05                	je     804876a <_init+0x22>
 8048765:	e8 d6 00 00 00       	call   8048840 <__gmon_start__@plt>
 804876a:	58                   	pop    %eax
 804876b:	5b                   	pop    %ebx
 804876c:	c9                   	leave  
 804876d:	c3                   	ret    

Disassembly of section .plt:

08048770 <read@plt-0x10>:
 8048770:	ff 35 04 b1 04 08    	pushl  0x804b104
 8048776:	ff 25 08 b1 04 08    	jmp    *0x804b108
 804877c:	00 00                	add    %al,(%eax)
	...

08048780 <read@plt>:
 8048780:	ff 25 0c b1 04 08    	jmp    *0x804b10c
 8048786:	68 00 00 00 00       	push   $0x0
 804878b:	e9 e0 ff ff ff       	jmp    8048770 <_init+0x28>

08048790 <printf@plt>:
 8048790:	ff 25 10 b1 04 08    	jmp    *0x804b110
 8048796:	68 08 00 00 00       	push   $0x8
 804879b:	e9 d0 ff ff ff       	jmp    8048770 <_init+0x28>

080487a0 <fflush@plt>:
 80487a0:	ff 25 14 b1 04 08    	jmp    *0x804b114
 80487a6:	68 10 00 00 00       	push   $0x10
 80487ab:	e9 c0 ff ff ff       	jmp    8048770 <_init+0x28>

080487b0 <memcpy@plt>:
 80487b0:	ff 25 18 b1 04 08    	jmp    *0x804b118
 80487b6:	68 18 00 00 00       	push   $0x18
 80487bb:	e9 b0 ff ff ff       	jmp    8048770 <_init+0x28>

080487c0 <fgets@plt>:
 80487c0:	ff 25 1c b1 04 08    	jmp    *0x804b11c
 80487c6:	68 20 00 00 00       	push   $0x20
 80487cb:	e9 a0 ff ff ff       	jmp    8048770 <_init+0x28>

080487d0 <signal@plt>:
 80487d0:	ff 25 20 b1 04 08    	jmp    *0x804b120
 80487d6:	68 28 00 00 00       	push   $0x28
 80487db:	e9 90 ff ff ff       	jmp    8048770 <_init+0x28>

080487e0 <sleep@plt>:
 80487e0:	ff 25 24 b1 04 08    	jmp    *0x804b124
 80487e6:	68 30 00 00 00       	push   $0x30
 80487eb:	e9 80 ff ff ff       	jmp    8048770 <_init+0x28>

080487f0 <alarm@plt>:
 80487f0:	ff 25 28 b1 04 08    	jmp    *0x804b128
 80487f6:	68 38 00 00 00       	push   $0x38
 80487fb:	e9 70 ff ff ff       	jmp    8048770 <_init+0x28>

08048800 <bcopy@plt>:
 8048800:	ff 25 2c b1 04 08    	jmp    *0x804b12c
 8048806:	68 40 00 00 00       	push   $0x40
 804880b:	e9 60 ff ff ff       	jmp    8048770 <_init+0x28>

08048810 <strcpy@plt>:
 8048810:	ff 25 30 b1 04 08    	jmp    *0x804b130
 8048816:	68 48 00 00 00       	push   $0x48
 804881b:	e9 50 ff ff ff       	jmp    8048770 <_init+0x28>

08048820 <getenv@plt>:
 8048820:	ff 25 34 b1 04 08    	jmp    *0x804b134
 8048826:	68 50 00 00 00       	push   $0x50
 804882b:	e9 40 ff ff ff       	jmp    8048770 <_init+0x28>

08048830 <puts@plt>:
 8048830:	ff 25 38 b1 04 08    	jmp    *0x804b138
 8048836:	68 58 00 00 00       	push   $0x58
 804883b:	e9 30 ff ff ff       	jmp    8048770 <_init+0x28>

08048840 <__gmon_start__@plt>:
 8048840:	ff 25 3c b1 04 08    	jmp    *0x804b13c
 8048846:	68 60 00 00 00       	push   $0x60
 804884b:	e9 20 ff ff ff       	jmp    8048770 <_init+0x28>

08048850 <exit@plt>:
 8048850:	ff 25 40 b1 04 08    	jmp    *0x804b140
 8048856:	68 68 00 00 00       	push   $0x68
 804885b:	e9 10 ff ff ff       	jmp    8048770 <_init+0x28>

08048860 <__libc_start_main@plt>:
 8048860:	ff 25 44 b1 04 08    	jmp    *0x804b144
 8048866:	68 70 00 00 00       	push   $0x70
 804886b:	e9 00 ff ff ff       	jmp    8048770 <_init+0x28>

08048870 <fprintf@plt>:
 8048870:	ff 25 48 b1 04 08    	jmp    *0x804b148
 8048876:	68 78 00 00 00       	push   $0x78
 804887b:	e9 f0 fe ff ff       	jmp    8048770 <_init+0x28>

08048880 <write@plt>:
 8048880:	ff 25 4c b1 04 08    	jmp    *0x804b14c
 8048886:	68 80 00 00 00       	push   $0x80
 804888b:	e9 e0 fe ff ff       	jmp    8048770 <_init+0x28>

08048890 <__isoc99_sscanf@plt>:
 8048890:	ff 25 50 b1 04 08    	jmp    *0x804b150
 8048896:	68 88 00 00 00       	push   $0x88
 804889b:	e9 d0 fe ff ff       	jmp    8048770 <_init+0x28>

080488a0 <fopen@plt>:
 80488a0:	ff 25 54 b1 04 08    	jmp    *0x804b154
 80488a6:	68 90 00 00 00       	push   $0x90
 80488ab:	e9 c0 fe ff ff       	jmp    8048770 <_init+0x28>

080488b0 <__errno_location@plt>:
 80488b0:	ff 25 58 b1 04 08    	jmp    *0x804b158
 80488b6:	68 98 00 00 00       	push   $0x98
 80488bb:	e9 b0 fe ff ff       	jmp    8048770 <_init+0x28>

080488c0 <sprintf@plt>:
 80488c0:	ff 25 5c b1 04 08    	jmp    *0x804b15c
 80488c6:	68 a0 00 00 00       	push   $0xa0
 80488cb:	e9 a0 fe ff ff       	jmp    8048770 <_init+0x28>

080488d0 <socket@plt>:
 80488d0:	ff 25 60 b1 04 08    	jmp    *0x804b160
 80488d6:	68 a8 00 00 00       	push   $0xa8
 80488db:	e9 90 fe ff ff       	jmp    8048770 <_init+0x28>

080488e0 <gethostbyname@plt>:
 80488e0:	ff 25 64 b1 04 08    	jmp    *0x804b164
 80488e6:	68 b0 00 00 00       	push   $0xb0
 80488eb:	e9 80 fe ff ff       	jmp    8048770 <_init+0x28>

080488f0 <strtol@plt>:
 80488f0:	ff 25 68 b1 04 08    	jmp    *0x804b168
 80488f6:	68 b8 00 00 00       	push   $0xb8
 80488fb:	e9 70 fe ff ff       	jmp    8048770 <_init+0x28>

08048900 <connect@plt>:
 8048900:	ff 25 6c b1 04 08    	jmp    *0x804b16c
 8048906:	68 c0 00 00 00       	push   $0xc0
 804890b:	e9 60 fe ff ff       	jmp    8048770 <_init+0x28>

08048910 <close@plt>:
 8048910:	ff 25 70 b1 04 08    	jmp    *0x804b170
 8048916:	68 c8 00 00 00       	push   $0xc8
 804891b:	e9 50 fe ff ff       	jmp    8048770 <_init+0x28>

08048920 <__ctype_b_loc@plt>:
 8048920:	ff 25 74 b1 04 08    	jmp    *0x804b174
 8048926:	68 d0 00 00 00       	push   $0xd0
 804892b:	e9 40 fe ff ff       	jmp    8048770 <_init+0x28>

Disassembly of section .text:

08048930 <_start>:
 8048930:	31 ed                	xor    %ebp,%ebp
 8048932:	5e                   	pop    %esi
 8048933:	89 e1                	mov    %esp,%ecx
 8048935:	83 e4 f0             	and    $0xfffffff0,%esp
 8048938:	50                   	push   %eax
 8048939:	54                   	push   %esp
 804893a:	52                   	push   %edx
 804893b:	68 e0 9e 04 08       	push   $0x8049ee0
 8048940:	68 f0 9e 04 08       	push   $0x8049ef0
 8048945:	51                   	push   %ecx
 8048946:	56                   	push   %esi
 8048947:	68 1c 8a 04 08       	push   $0x8048a1c
 804894c:	e8 0f ff ff ff       	call   8048860 <__libc_start_main@plt>
 8048951:	f4                   	hlt    
 8048952:	90                   	nop
 8048953:	90                   	nop
 8048954:	90                   	nop
 8048955:	90                   	nop
 8048956:	90                   	nop
 8048957:	90                   	nop
 8048958:	90                   	nop
 8048959:	90                   	nop
 804895a:	90                   	nop
 804895b:	90                   	nop
 804895c:	90                   	nop
 804895d:	90                   	nop
 804895e:	90                   	nop
 804895f:	90                   	nop

08048960 <deregister_tm_clones>:
 8048960:	b8 a3 b4 04 08       	mov    $0x804b4a3,%eax
 8048965:	2d a0 b4 04 08       	sub    $0x804b4a0,%eax
 804896a:	83 f8 06             	cmp    $0x6,%eax
 804896d:	77 02                	ja     8048971 <deregister_tm_clones+0x11>
 804896f:	f3 c3                	repz ret 
 8048971:	b8 00 00 00 00       	mov    $0x0,%eax
 8048976:	85 c0                	test   %eax,%eax
 8048978:	74 f5                	je     804896f <deregister_tm_clones+0xf>
 804897a:	55                   	push   %ebp
 804897b:	89 e5                	mov    %esp,%ebp
 804897d:	83 ec 18             	sub    $0x18,%esp
 8048980:	c7 04 24 a0 b4 04 08 	movl   $0x804b4a0,(%esp)
 8048987:	ff d0                	call   *%eax
 8048989:	c9                   	leave  
 804898a:	c3                   	ret    
 804898b:	90                   	nop
 804898c:	8d 74 26 00          	lea    0x0(%esi,%eiz,1),%esi

08048990 <register_tm_clones>:
 8048990:	b8 a0 b4 04 08       	mov    $0x804b4a0,%eax
 8048995:	2d a0 b4 04 08       	sub    $0x804b4a0,%eax
 804899a:	c1 f8 02             	sar    $0x2,%eax
 804899d:	89 c2                	mov    %eax,%edx
 804899f:	c1 ea 1f             	shr    $0x1f,%edx
 80489a2:	01 d0                	add    %edx,%eax
 80489a4:	d1 f8                	sar    %eax
 80489a6:	75 02                	jne    80489aa <register_tm_clones+0x1a>
 80489a8:	f3 c3                	repz ret 
 80489aa:	ba 00 00 00 00       	mov    $0x0,%edx
 80489af:	85 d2                	test   %edx,%edx
 80489b1:	74 f5                	je     80489a8 <register_tm_clones+0x18>
 80489b3:	55                   	push   %ebp
 80489b4:	89 e5                	mov    %esp,%ebp
 80489b6:	83 ec 18             	sub    $0x18,%esp
 80489b9:	89 44 24 04          	mov    %eax,0x4(%esp)
 80489bd:	c7 04 24 a0 b4 04 08 	movl   $0x804b4a0,(%esp)
 80489c4:	ff d2                	call   *%edx
 80489c6:	c9                   	leave  
 80489c7:	c3                   	ret    
 80489c8:	90                   	nop
 80489c9:	8d b4 26 00 00 00 00 	lea    0x0(%esi,%eiz,1),%esi

080489d0 <__do_global_dtors_aux>:
 80489d0:	80 3d c4 b4 04 08 00 	cmpb   $0x0,0x804b4c4
 80489d7:	75 13                	jne    80489ec <__do_global_dtors_aux+0x1c>
 80489d9:	55                   	push   %ebp
 80489da:	89 e5                	mov    %esp,%ebp
 80489dc:	83 ec 08             	sub    $0x8,%esp
 80489df:	e8 7c ff ff ff       	call   8048960 <deregister_tm_clones>
 80489e4:	c6 05 c4 b4 04 08 01 	movb   $0x1,0x804b4c4
 80489eb:	c9                   	leave  
 80489ec:	f3 c3                	repz ret 
 80489ee:	66 90                	xchg   %ax,%ax

080489f0 <frame_dummy>:
 80489f0:	a1 08 b0 04 08       	mov    0x804b008,%eax
 80489f5:	85 c0                	test   %eax,%eax
 80489f7:	74 1e                	je     8048a17 <frame_dummy+0x27>
 80489f9:	b8 00 00 00 00       	mov    $0x0,%eax
 80489fe:	85 c0                	test   %eax,%eax
 8048a00:	74 15                	je     8048a17 <frame_dummy+0x27>
 8048a02:	55                   	push   %ebp
 8048a03:	89 e5                	mov    %esp,%ebp
 8048a05:	83 ec 18             	sub    $0x18,%esp
 8048a08:	c7 04 24 08 b0 04 08 	movl   $0x804b008,(%esp)
 8048a0f:	ff d0                	call   *%eax
 8048a11:	c9                   	leave  
 8048a12:	e9 79 ff ff ff       	jmp    8048990 <register_tm_clones>
 8048a17:	e9 74 ff ff ff       	jmp    8048990 <register_tm_clones>

08048a1c <main>:
 8048a1c:	55                   	push   %ebp
 8048a1d:	89 e5                	mov    %esp,%ebp
 8048a1f:	53                   	push   %ebx
 8048a20:	83 e4 f0             	and    $0xfffffff0,%esp
 8048a23:	83 ec 10             	sub    $0x10,%esp
 8048a26:	8b 45 08             	mov    0x8(%ebp),%eax
 8048a29:	8b 5d 0c             	mov    0xc(%ebp),%ebx
 8048a2c:	83 f8 01             	cmp    $0x1,%eax
 8048a2f:	75 0c                	jne    8048a3d <main+0x21>
 8048a31:	a1 a4 b4 04 08       	mov    0x804b4a4,%eax
 8048a36:	a3 cc b4 04 08       	mov    %eax,0x804b4cc
 8048a3b:	eb 64                	jmp    8048aa1 <main+0x85>
 8048a3d:	83 f8 02             	cmp    $0x2,%eax
 8048a40:	75 41                	jne    8048a83 <main+0x67>
 8048a42:	c7 44 24 04 88 9f 04 	movl   $0x8049f88,0x4(%esp)
 8048a49:	08 
 8048a4a:	8b 43 04             	mov    0x4(%ebx),%eax
 8048a4d:	89 04 24             	mov    %eax,(%esp)
 8048a50:	e8 4b fe ff ff       	call   80488a0 <fopen@plt>
 8048a55:	a3 cc b4 04 08       	mov    %eax,0x804b4cc
 8048a5a:	85 c0                	test   %eax,%eax
 8048a5c:	75 43                	jne    8048aa1 <main+0x85>
 8048a5e:	8b 43 04             	mov    0x4(%ebx),%eax
 8048a61:	89 44 24 08          	mov    %eax,0x8(%esp)
 8048a65:	8b 03                	mov    (%ebx),%eax
 8048a67:	89 44 24 04          	mov    %eax,0x4(%esp)
 8048a6b:	c7 04 24 8a 9f 04 08 	movl   $0x8049f8a,(%esp)
 8048a72:	e8 19 fd ff ff       	call   8048790 <printf@plt>
 8048a77:	c7 04 24 08 00 00 00 	movl   $0x8,(%esp)
 8048a7e:	e8 cd fd ff ff       	call   8048850 <exit@plt>
 8048a83:	8b 03                	mov    (%ebx),%eax
 8048a85:	89 44 24 04          	mov    %eax,0x4(%esp)
 8048a89:	c7 04 24 a7 9f 04 08 	movl   $0x8049fa7,(%esp)
 8048a90:	e8 fb fc ff ff       	call   8048790 <printf@plt>
 8048a95:	c7 04 24 08 00 00 00 	movl   $0x8,(%esp)
 8048a9c:	e8 af fd ff ff       	call   8048850 <exit@plt>
 8048aa1:	e8 c2 05 00 00       	call   8049068 <initialize_bomb>
 8048aa6:	c7 04 24 0c a0 04 08 	movl   $0x804a00c,(%esp)
 8048aad:	e8 7e fd ff ff       	call   8048830 <puts@plt>
 8048ab2:	c7 04 24 48 a0 04 08 	movl   $0x804a048,(%esp)
 8048ab9:	e8 72 fd ff ff       	call   8048830 <puts@plt>
 8048abe:	e8 6b 06 00 00       	call   804912e <read_line>
 8048ac3:	89 04 24             	mov    %eax,(%esp)
 8048ac6:	e8 a5 00 00 00       	call   8048b70 <phase_1>
 8048acb:	e8 ba 07 00 00       	call   804928a <phase_defused>
 8048ad0:	c7 04 24 74 a0 04 08 	movl   $0x804a074,(%esp)
 8048ad7:	e8 54 fd ff ff       	call   8048830 <puts@plt>
 8048adc:	e8 4d 06 00 00       	call   804912e <read_line>
 8048ae1:	89 04 24             	mov    %eax,(%esp)
 8048ae4:	e8 ab 00 00 00       	call   8048b94 <phase_2>
 8048ae9:	e8 9c 07 00 00       	call   804928a <phase_defused>
 8048aee:	c7 04 24 c1 9f 04 08 	movl   $0x8049fc1,(%esp)
 8048af5:	e8 36 fd ff ff       	call   8048830 <puts@plt>
 8048afa:	e8 2f 06 00 00       	call   804912e <read_line>
 8048aff:	89 04 24             	mov    %eax,(%esp)
 8048b02:	e8 da 00 00 00       	call   8048be1 <phase_3>
 8048b07:	e8 7e 07 00 00       	call   804928a <phase_defused>
 8048b0c:	c7 04 24 df 9f 04 08 	movl   $0x8049fdf,(%esp)
 8048b13:	e8 18 fd ff ff       	call   8048830 <puts@plt>
 8048b18:	e8 11 06 00 00       	call   804912e <read_line>
 8048b1d:	89 04 24             	mov    %eax,(%esp)
 8048b20:	e8 bd 01 00 00       	call   8048ce2 <phase_4>
 8048b25:	e8 60 07 00 00       	call   804928a <phase_defused>
 8048b2a:	c7 04 24 a0 a0 04 08 	movl   $0x804a0a0,(%esp)
 8048b31:	e8 fa fc ff ff       	call   8048830 <puts@plt>
 8048b36:	e8 f3 05 00 00       	call   804912e <read_line>
 8048b3b:	89 04 24             	mov    %eax,(%esp)
 8048b3e:	e8 0e 02 00 00       	call   8048d51 <phase_5>
 8048b43:	e8 42 07 00 00       	call   804928a <phase_defused>
 8048b48:	c7 04 24 ee 9f 04 08 	movl   $0x8049fee,(%esp)
 8048b4f:	e8 dc fc ff ff       	call   8048830 <puts@plt>
 8048b54:	e8 d5 05 00 00       	call   804912e <read_line>
 8048b59:	89 04 24             	mov    %eax,(%esp)
 8048b5c:	e8 64 02 00 00       	call   8048dc5 <phase_6>
 8048b61:	e8 24 07 00 00       	call   804928a <phase_defused>
 8048b66:	b8 00 00 00 00       	mov    $0x0,%eax
 8048b6b:	8b 5d fc             	mov    -0x4(%ebp),%ebx
 8048b6e:	c9                   	leave  
 8048b6f:	c3                   	ret    

08048b70 <phase_1>:
 8048b70:	83 ec 1c             	sub    $0x1c,%esp
 8048b73:	c7 44 24 04 c4 a0 04 	movl   $0x804a0c4,0x4(%esp)
 8048b7a:	08 
 8048b7b:	8b 44 24 20          	mov    0x20(%esp),%eax
 8048b7f:	89 04 24             	mov    %eax,(%esp)
 8048b82:	e8 73 04 00 00       	call   8048ffa <strings_not_equal>
 8048b87:	85 c0                	test   %eax,%eax
 8048b89:	74 05                	je     8048b90 <phase_1+0x20>
 8048b8b:	e8 77 05 00 00       	call   8049107 <explode_bomb>
 8048b90:	83 c4 1c             	add    $0x1c,%esp
 8048b93:	c3                   	ret    

08048b94 <phase_2>:
 8048b94:	53                   	push   %ebx
 8048b95:	83 ec 38             	sub    $0x38,%esp
 8048b98:	8d 44 24 18          	lea    0x18(%esp),%eax
 8048b9c:	89 44 24 04          	mov    %eax,0x4(%esp)
 8048ba0:	8b 44 24 40          	mov    0x40(%esp),%eax
 8048ba4:	89 04 24             	mov    %eax,(%esp)
 8048ba7:	e8 8e 06 00 00       	call   804923a <read_six_numbers>
 8048bac:	83 7c 24 18 00       	cmpl   $0x0,0x18(%esp)
 8048bb1:	79 22                	jns    8048bd5 <phase_2+0x41>
 8048bb3:	e8 4f 05 00 00       	call   8049107 <explode_bomb>
 8048bb8:	eb 1b                	jmp    8048bd5 <phase_2+0x41>
 8048bba:	89 d8                	mov    %ebx,%eax
 8048bbc:	03 44 9c 14          	add    0x14(%esp,%ebx,4),%eax
 8048bc0:	39 44 9c 18          	cmp    %eax,0x18(%esp,%ebx,4)
 8048bc4:	74 05                	je     8048bcb <phase_2+0x37>
 8048bc6:	e8 3c 05 00 00       	call   8049107 <explode_bomb>
 8048bcb:	83 c3 01             	add    $0x1,%ebx
 8048bce:	83 fb 06             	cmp    $0x6,%ebx
 8048bd1:	75 e7                	jne    8048bba <phase_2+0x26>
 8048bd3:	eb 07                	jmp    8048bdc <phase_2+0x48>
 8048bd5:	bb 01 00 00 00       	mov    $0x1,%ebx
 8048bda:	eb de                	jmp    8048bba <phase_2+0x26>
 8048bdc:	83 c4 38             	add    $0x38,%esp
 8048bdf:	5b                   	pop    %ebx
 8048be0:	c3                   	ret    

08048be1 <phase_3>:
 8048be1:	83 ec 2c             	sub    $0x2c,%esp
 8048be4:	8d 44 24 18          	lea    0x18(%esp),%eax
 8048be8:	89 44 24 0c          	mov    %eax,0xc(%esp)
 8048bec:	8d 44 24 1c          	lea    0x1c(%esp),%eax
 8048bf0:	89 44 24 08          	mov    %eax,0x8(%esp)
 8048bf4:	c7 44 24 04 e3 a2 04 	movl   $0x804a2e3,0x4(%esp)
 8048bfb:	08 
 8048bfc:	8b 44 24 30          	mov    0x30(%esp),%eax
 8048c00:	89 04 24             	mov    %eax,(%esp)
 8048c03:	e8 88 fc ff ff       	call   8048890 <__isoc99_sscanf@plt>
 8048c08:	83 f8 01             	cmp    $0x1,%eax
 8048c0b:	7f 05                	jg     8048c12 <phase_3+0x31>
 8048c0d:	e8 f5 04 00 00       	call   8049107 <explode_bomb>
 8048c12:	83 7c 24 1c 07       	cmpl   $0x7,0x1c(%esp)
 8048c17:	77 3c                	ja     8048c55 <phase_3+0x74>
 8048c19:	8b 44 24 1c          	mov    0x1c(%esp),%eax
 8048c1d:	ff 24 85 20 a1 04 08 	jmp    *0x804a120(,%eax,4)
 8048c24:	b8 b0 00 00 00       	mov    $0xb0,%eax
 8048c29:	eb 3b                	jmp    8048c66 <phase_3+0x85>
 8048c2b:	b8 5e 00 00 00       	mov    $0x5e,%eax
 8048c30:	eb 34                	jmp    8048c66 <phase_3+0x85>
 8048c32:	b8 56 03 00 00       	mov    $0x356,%eax
 8048c37:	eb 2d                	jmp    8048c66 <phase_3+0x85>
 8048c39:	b8 87 02 00 00       	mov    $0x287,%eax
 8048c3e:	eb 26                	jmp    8048c66 <phase_3+0x85>
 8048c40:	b8 a9 00 00 00       	mov    $0xa9,%eax
 8048c45:	eb 1f                	jmp    8048c66 <phase_3+0x85>
 8048c47:	b8 20 02 00 00       	mov    $0x220,%eax
 8048c4c:	eb 18                	jmp    8048c66 <phase_3+0x85>
 8048c4e:	b8 a7 02 00 00       	mov    $0x2a7,%eax
 8048c53:	eb 11                	jmp    8048c66 <phase_3+0x85>
 8048c55:	e8 ad 04 00 00       	call   8049107 <explode_bomb>
 8048c5a:	b8 00 00 00 00       	mov    $0x0,%eax
 8048c5f:	eb 05                	jmp    8048c66 <phase_3+0x85>
 8048c61:	b8 9e 03 00 00       	mov    $0x39e,%eax
 8048c66:	3b 44 24 18          	cmp    0x18(%esp),%eax
 8048c6a:	74 05                	je     8048c71 <phase_3+0x90>
 8048c6c:	e8 96 04 00 00       	call   8049107 <explode_bomb>
 8048c71:	83 c4 2c             	add    $0x2c,%esp
 8048c74:	c3                   	ret    

08048c75 <func4>:
 8048c75:	83 ec 1c             	sub    $0x1c,%esp
 8048c78:	89 5c 24 14          	mov    %ebx,0x14(%esp)
 8048c7c:	89 74 24 18          	mov    %esi,0x18(%esp)
 8048c80:	8b 54 24 20          	mov    0x20(%esp),%edx
 8048c84:	8b 44 24 24          	mov    0x24(%esp),%eax
 8048c88:	8b 5c 24 28          	mov    0x28(%esp),%ebx
 8048c8c:	89 d9                	mov    %ebx,%ecx
 8048c8e:	29 c1                	sub    %eax,%ecx
 8048c90:	89 ce                	mov    %ecx,%esi
 8048c92:	c1 ee 1f             	shr    $0x1f,%esi
 8048c95:	01 f1                	add    %esi,%ecx
 8048c97:	d1 f9                	sar    %ecx
 8048c99:	01 c1                	add    %eax,%ecx
 8048c9b:	39 d1                	cmp    %edx,%ecx
 8048c9d:	7e 17                	jle    8048cb6 <func4+0x41>
 8048c9f:	83 e9 01             	sub    $0x1,%ecx
 8048ca2:	89 4c 24 08          	mov    %ecx,0x8(%esp)
 8048ca6:	89 44 24 04          	mov    %eax,0x4(%esp)
 8048caa:	89 14 24             	mov    %edx,(%esp)
 8048cad:	e8 c3 ff ff ff       	call   8048c75 <func4>
 8048cb2:	01 c0                	add    %eax,%eax
 8048cb4:	eb 20                	jmp    8048cd6 <func4+0x61>
 8048cb6:	b8 00 00 00 00       	mov    $0x0,%eax
 8048cbb:	39 d1                	cmp    %edx,%ecx
 8048cbd:	7d 17                	jge    8048cd6 <func4+0x61>
 8048cbf:	89 5c 24 08          	mov    %ebx,0x8(%esp)
 8048cc3:	83 c1 01             	add    $0x1,%ecx
 8048cc6:	89 4c 24 04          	mov    %ecx,0x4(%esp)
 8048cca:	89 14 24             	mov    %edx,(%esp)
 8048ccd:	e8 a3 ff ff ff       	call   8048c75 <func4>
 8048cd2:	8d 44 00 01          	lea    0x1(%eax,%eax,1),%eax
 8048cd6:	8b 5c 24 14          	mov    0x14(%esp),%ebx
 8048cda:	8b 74 24 18          	mov    0x18(%esp),%esi
 8048cde:	83 c4 1c             	add    $0x1c,%esp
 8048ce1:	c3                   	ret    

08048ce2 <phase_4>:
 8048ce2:	83 ec 2c             	sub    $0x2c,%esp
 8048ce5:	8d 44 24 18          	lea    0x18(%esp),%eax
 8048ce9:	89 44 24 0c          	mov    %eax,0xc(%esp)
 8048ced:	8d 44 24 1c          	lea    0x1c(%esp),%eax
 8048cf1:	89 44 24 08          	mov    %eax,0x8(%esp)
 8048cf5:	c7 44 24 04 e3 a2 04 	movl   $0x804a2e3,0x4(%esp)
 8048cfc:	08 
 8048cfd:	8b 44 24 30          	mov    0x30(%esp),%eax
 8048d01:	89 04 24             	mov    %eax,(%esp)
 8048d04:	e8 87 fb ff ff       	call   8048890 <__isoc99_sscanf@plt>
 8048d09:	83 f8 02             	cmp    $0x2,%eax
 8048d0c:	75 0d                	jne    8048d1b <phase_4+0x39>
 8048d0e:	8b 44 24 1c          	mov    0x1c(%esp),%eax
 8048d12:	85 c0                	test   %eax,%eax
 8048d14:	78 05                	js     8048d1b <phase_4+0x39>
 8048d16:	83 f8 0e             	cmp    $0xe,%eax
 8048d19:	7e 05                	jle    8048d20 <phase_4+0x3e>
 8048d1b:	e8 e7 03 00 00       	call   8049107 <explode_bomb>
 8048d20:	c7 44 24 08 0e 00 00 	movl   $0xe,0x8(%esp)
 8048d27:	00 
 8048d28:	c7 44 24 04 00 00 00 	movl   $0x0,0x4(%esp)
 8048d2f:	00 
 8048d30:	8b 44 24 1c          	mov    0x1c(%esp),%eax
 8048d34:	89 04 24             	mov    %eax,(%esp)
 8048d37:	e8 39 ff ff ff       	call   8048c75 <func4>
 8048d3c:	83 f8 07             	cmp    $0x7,%eax
 8048d3f:	75 07                	jne    8048d48 <phase_4+0x66>
 8048d41:	83 7c 24 18 07       	cmpl   $0x7,0x18(%esp)
 8048d46:	74 05                	je     8048d4d <phase_4+0x6b>
 8048d48:	e8 ba 03 00 00       	call   8049107 <explode_bomb>
 8048d4d:	83 c4 2c             	add    $0x2c,%esp
 8048d50:	c3                   	ret    

08048d51 <phase_5>:
 8048d51:	83 ec 2c             	sub    $0x2c,%esp
 8048d54:	8d 44 24 18          	lea    0x18(%esp),%eax
 8048d58:	89 44 24 0c          	mov    %eax,0xc(%esp)
 8048d5c:	8d 44 24 1c          	lea    0x1c(%esp),%eax
 8048d60:	89 44 24 08          	mov    %eax,0x8(%esp)
 8048d64:	c7 44 24 04 e3 a2 04 	movl   $0x804a2e3,0x4(%esp)
 8048d6b:	08 
 8048d6c:	8b 44 24 30          	mov    0x30(%esp),%eax
 8048d70:	89 04 24             	mov    %eax,(%esp)
 8048d73:	e8 18 fb ff ff       	call   8048890 <__isoc99_sscanf@plt>
 8048d78:	83 f8 01             	cmp    $0x1,%eax
 8048d7b:	7f 05                	jg     8048d82 <phase_5+0x31>
 8048d7d:	e8 85 03 00 00       	call   8049107 <explode_bomb>
 8048d82:	8b 44 24 1c          	mov    0x1c(%esp),%eax
 8048d86:	83 e0 0f             	and    $0xf,%eax
 8048d89:	89 44 24 1c          	mov    %eax,0x1c(%esp)
 8048d8d:	83 f8 0f             	cmp    $0xf,%eax
 8048d90:	74 2a                	je     8048dbc <phase_5+0x6b>
 8048d92:	b9 00 00 00 00       	mov    $0x0,%ecx
 8048d97:	ba 00 00 00 00       	mov    $0x0,%edx
 8048d9c:	83 c2 01             	add    $0x1,%edx
 8048d9f:	8b 04 85 40 a1 04 08 	mov    0x804a140(,%eax,4),%eax
 8048da6:	01 c1                	add    %eax,%ecx
 8048da8:	83 f8 0f             	cmp    $0xf,%eax
 8048dab:	75 ef                	jne    8048d9c <phase_5+0x4b>
 8048dad:	89 44 24 1c          	mov    %eax,0x1c(%esp)
 8048db1:	83 fa 0f             	cmp    $0xf,%edx
 8048db4:	75 06                	jne    8048dbc <phase_5+0x6b>
 8048db6:	3b 4c 24 18          	cmp    0x18(%esp),%ecx
 8048dba:	74 05                	je     8048dc1 <phase_5+0x70>
 8048dbc:	e8 46 03 00 00       	call   8049107 <explode_bomb>
 8048dc1:	83 c4 2c             	add    $0x2c,%esp
 8048dc4:	c3                   	ret    

08048dc5 <phase_6>:
 8048dc5:	57                   	push   %edi
 8048dc6:	56                   	push   %esi
 8048dc7:	53                   	push   %ebx
 8048dc8:	83 ec 40             	sub    $0x40,%esp
 8048dcb:	8d 44 24 28          	lea    0x28(%esp),%eax
 8048dcf:	89 44 24 04          	mov    %eax,0x4(%esp)
 8048dd3:	8b 44 24 50          	mov    0x50(%esp),%eax
 8048dd7:	89 04 24             	mov    %eax,(%esp)
 8048dda:	e8 5b 04 00 00       	call   804923a <read_six_numbers>
 8048ddf:	bf 00 00 00 00       	mov    $0x0,%edi
 8048de4:	8b 44 bc 28          	mov    0x28(%esp,%edi,4),%eax
 8048de8:	83 e8 01             	sub    $0x1,%eax
 8048deb:	83 f8 05             	cmp    $0x5,%eax
 8048dee:	76 05                	jbe    8048df5 <phase_6+0x30>
 8048df0:	e8 12 03 00 00       	call   8049107 <explode_bomb>
 8048df5:	8d 77 01             	lea    0x1(%edi),%esi
 8048df8:	83 fe 06             	cmp    $0x6,%esi
 8048dfb:	74 35                	je     8048e32 <phase_6+0x6d>
 8048dfd:	89 f3                	mov    %esi,%ebx
 8048dff:	8b 44 9c 28          	mov    0x28(%esp,%ebx,4),%eax
 8048e03:	39 44 b4 24          	cmp    %eax,0x24(%esp,%esi,4)
 8048e07:	75 05                	jne    8048e0e <phase_6+0x49>
 8048e09:	e8 f9 02 00 00       	call   8049107 <explode_bomb>
 8048e0e:	83 c3 01             	add    $0x1,%ebx
 8048e11:	89 f7                	mov    %esi,%edi
 8048e13:	83 fb 05             	cmp    $0x5,%ebx
 8048e16:	7e e7                	jle    8048dff <phase_6+0x3a>
 8048e18:	eb ca                	jmp    8048de4 <phase_6+0x1f>
 8048e1a:	8b 52 08             	mov    0x8(%edx),%edx
 8048e1d:	83 c0 01             	add    $0x1,%eax
 8048e20:	39 c8                	cmp    %ecx,%eax
 8048e22:	75 f6                	jne    8048e1a <phase_6+0x55>
 8048e24:	89 54 b4 10          	mov    %edx,0x10(%esp,%esi,4)
 8048e28:	83 c3 01             	add    $0x1,%ebx
 8048e2b:	83 fb 06             	cmp    $0x6,%ebx
 8048e2e:	75 07                	jne    8048e37 <phase_6+0x72>
 8048e30:	eb 1c                	jmp    8048e4e <phase_6+0x89>
 8048e32:	bb 00 00 00 00       	mov    $0x0,%ebx
 8048e37:	89 de                	mov    %ebx,%esi
 8048e39:	8b 4c 9c 28          	mov    0x28(%esp,%ebx,4),%ecx
 8048e3d:	b8 01 00 00 00       	mov    $0x1,%eax
 8048e42:	ba 3c b2 04 08       	mov    $0x804b23c,%edx
 8048e47:	83 f9 01             	cmp    $0x1,%ecx
 8048e4a:	7f ce                	jg     8048e1a <phase_6+0x55>
 8048e4c:	eb d6                	jmp    8048e24 <phase_6+0x5f>
 8048e4e:	8b 5c 24 10          	mov    0x10(%esp),%ebx
 8048e52:	8b 44 24 14          	mov    0x14(%esp),%eax
 8048e56:	89 43 08             	mov    %eax,0x8(%ebx)
 8048e59:	8b 54 24 18          	mov    0x18(%esp),%edx
 8048e5d:	89 50 08             	mov    %edx,0x8(%eax)
 8048e60:	8b 44 24 1c          	mov    0x1c(%esp),%eax
 8048e64:	89 42 08             	mov    %eax,0x8(%edx)
 8048e67:	8b 54 24 20          	mov    0x20(%esp),%edx
 8048e6b:	89 50 08             	mov    %edx,0x8(%eax)
 8048e6e:	8b 44 24 24          	mov    0x24(%esp),%eax
 8048e72:	89 42 08             	mov    %eax,0x8(%edx)
 8048e75:	c7 40 08 00 00 00 00 	movl   $0x0,0x8(%eax)
 8048e7c:	be 05 00 00 00       	mov    $0x5,%esi
 8048e81:	8b 43 08             	mov    0x8(%ebx),%eax
 8048e84:	8b 10                	mov    (%eax),%edx
 8048e86:	39 13                	cmp    %edx,(%ebx)
 8048e88:	7d 05                	jge    8048e8f <phase_6+0xca>
 8048e8a:	e8 78 02 00 00       	call   8049107 <explode_bomb>
 8048e8f:	8b 5b 08             	mov    0x8(%ebx),%ebx
 8048e92:	83 ee 01             	sub    $0x1,%esi
 8048e95:	75 ea                	jne    8048e81 <phase_6+0xbc>
 8048e97:	83 c4 40             	add    $0x40,%esp
 8048e9a:	5b                   	pop    %ebx
 8048e9b:	5e                   	pop    %esi
 8048e9c:	5f                   	pop    %edi
 8048e9d:	c3                   	ret    

08048e9e <fun7>:
 8048e9e:	53                   	push   %ebx
 8048e9f:	83 ec 18             	sub    $0x18,%esp
 8048ea2:	8b 54 24 20          	mov    0x20(%esp),%edx
 8048ea6:	8b 4c 24 24          	mov    0x24(%esp),%ecx
 8048eaa:	85 d2                	test   %edx,%edx
 8048eac:	74 37                	je     8048ee5 <fun7+0x47>
 8048eae:	8b 1a                	mov    (%edx),%ebx
 8048eb0:	39 cb                	cmp    %ecx,%ebx
 8048eb2:	7e 13                	jle    8048ec7 <fun7+0x29>
 8048eb4:	89 4c 24 04          	mov    %ecx,0x4(%esp)
 8048eb8:	8b 42 04             	mov    0x4(%edx),%eax
 8048ebb:	89 04 24             	mov    %eax,(%esp)
 8048ebe:	e8 db ff ff ff       	call   8048e9e <fun7>
 8048ec3:	01 c0                	add    %eax,%eax
 8048ec5:	eb 23                	jmp    8048eea <fun7+0x4c>
 8048ec7:	b8 00 00 00 00       	mov    $0x0,%eax
 8048ecc:	39 cb                	cmp    %ecx,%ebx
 8048ece:	74 1a                	je     8048eea <fun7+0x4c>
 8048ed0:	89 4c 24 04          	mov    %ecx,0x4(%esp)
 8048ed4:	8b 42 08             	mov    0x8(%edx),%eax
 8048ed7:	89 04 24             	mov    %eax,(%esp)
 8048eda:	e8 bf ff ff ff       	call   8048e9e <fun7>
 8048edf:	8d 44 00 01          	lea    0x1(%eax,%eax,1),%eax
 8048ee3:	eb 05                	jmp    8048eea <fun7+0x4c>
 8048ee5:	b8 ff ff ff ff       	mov    $0xffffffff,%eax
 8048eea:	83 c4 18             	add    $0x18,%esp
 8048eed:	5b                   	pop    %ebx
 8048eee:	c3                   	ret    

08048eef <secret_phase>:
 8048eef:	53                   	push   %ebx
 8048ef0:	83 ec 18             	sub    $0x18,%esp
 8048ef3:	e8 36 02 00 00       	call   804912e <read_line>
 8048ef8:	c7 44 24 08 0a 00 00 	movl   $0xa,0x8(%esp)
 8048eff:	00 
 8048f00:	c7 44 24 04 00 00 00 	movl   $0x0,0x4(%esp)
 8048f07:	00 
 8048f08:	89 04 24             	mov    %eax,(%esp)
 8048f0b:	e8 e0 f9 ff ff       	call   80488f0 <strtol@plt>
 8048f10:	89 c3                	mov    %eax,%ebx
 8048f12:	8d 40 ff             	lea    -0x1(%eax),%eax
 8048f15:	3d e8 03 00 00       	cmp    $0x3e8,%eax
 8048f1a:	76 05                	jbe    8048f21 <secret_phase+0x32>
 8048f1c:	e8 e6 01 00 00       	call   8049107 <explode_bomb>
 8048f21:	89 5c 24 04          	mov    %ebx,0x4(%esp)
 8048f25:	c7 04 24 88 b1 04 08 	movl   $0x804b188,(%esp)
 8048f2c:	e8 6d ff ff ff       	call   8048e9e <fun7>
 8048f31:	83 f8 03             	cmp    $0x3,%eax
 8048f34:	74 05                	je     8048f3b <secret_phase+0x4c>
 8048f36:	e8 cc 01 00 00       	call   8049107 <explode_bomb>
 8048f3b:	c7 04 24 e4 a0 04 08 	movl   $0x804a0e4,(%esp)
 8048f42:	e8 e9 f8 ff ff       	call   8048830 <puts@plt>
 8048f47:	e8 3e 03 00 00       	call   804928a <phase_defused>
 8048f4c:	83 c4 18             	add    $0x18,%esp
 8048f4f:	5b                   	pop    %ebx
 8048f50:	c3                   	ret    
 8048f51:	90                   	nop
 8048f52:	90                   	nop
 8048f53:	90                   	nop
 8048f54:	90                   	nop
 8048f55:	90                   	nop
 8048f56:	90                   	nop
 8048f57:	90                   	nop
 8048f58:	90                   	nop
 8048f59:	90                   	nop
 8048f5a:	90                   	nop
 8048f5b:	90                   	nop
 8048f5c:	90                   	nop
 8048f5d:	90                   	nop
 8048f5e:	90                   	nop
 8048f5f:	90                   	nop

08048f60 <sig_handler>:
 8048f60:	83 ec 1c             	sub    $0x1c,%esp
 8048f63:	c7 04 24 80 a1 04 08 	movl   $0x804a180,(%esp)
 8048f6a:	e8 c1 f8 ff ff       	call   8048830 <puts@plt>
 8048f6f:	c7 04 24 03 00 00 00 	movl   $0x3,(%esp)
 8048f76:	e8 65 f8 ff ff       	call   80487e0 <sleep@plt>
 8048f7b:	c7 04 24 42 a2 04 08 	movl   $0x804a242,(%esp)
 8048f82:	e8 09 f8 ff ff       	call   8048790 <printf@plt>
 8048f87:	a1 c0 b4 04 08       	mov    0x804b4c0,%eax
 8048f8c:	89 04 24             	mov    %eax,(%esp)
 8048f8f:	e8 0c f8 ff ff       	call   80487a0 <fflush@plt>
 8048f94:	c7 04 24 01 00 00 00 	movl   $0x1,(%esp)
 8048f9b:	e8 40 f8 ff ff       	call   80487e0 <sleep@plt>
 8048fa0:	c7 04 24 4a a2 04 08 	movl   $0x804a24a,(%esp)
 8048fa7:	e8 84 f8 ff ff       	call   8048830 <puts@plt>
 8048fac:	c7 04 24 10 00 00 00 	movl   $0x10,(%esp)
 8048fb3:	e8 98 f8 ff ff       	call   8048850 <exit@plt>

08048fb8 <invalid_phase>:
 8048fb8:	83 ec 1c             	sub    $0x1c,%esp
 8048fbb:	8b 44 24 20          	mov    0x20(%esp),%eax
 8048fbf:	89 44 24 04          	mov    %eax,0x4(%esp)
 8048fc3:	c7 04 24 52 a2 04 08 	movl   $0x804a252,(%esp)
 8048fca:	e8 c1 f7 ff ff       	call   8048790 <printf@plt>
 8048fcf:	c7 04 24 08 00 00 00 	movl   $0x8,(%esp)
 8048fd6:	e8 75 f8 ff ff       	call   8048850 <exit@plt>

08048fdb <string_length>:
 8048fdb:	8b 54 24 04          	mov    0x4(%esp),%edx
 8048fdf:	80 3a 00             	cmpb   $0x0,(%edx)
 8048fe2:	74 10                	je     8048ff4 <string_length+0x19>
 8048fe4:	b8 00 00 00 00       	mov    $0x0,%eax
 8048fe9:	83 c0 01             	add    $0x1,%eax
 8048fec:	80 3c 02 00          	cmpb   $0x0,(%edx,%eax,1)
 8048ff0:	75 f7                	jne    8048fe9 <string_length+0xe>
 8048ff2:	f3 c3                	repz ret 
 8048ff4:	b8 00 00 00 00       	mov    $0x0,%eax
 8048ff9:	c3                   	ret    

08048ffa <strings_not_equal>:
 8048ffa:	57                   	push   %edi
 8048ffb:	56                   	push   %esi
 8048ffc:	53                   	push   %ebx
 8048ffd:	83 ec 04             	sub    $0x4,%esp
 8049000:	8b 5c 24 14          	mov    0x14(%esp),%ebx
 8049004:	8b 74 24 18          	mov    0x18(%esp),%esi
 8049008:	89 1c 24             	mov    %ebx,(%esp)
 804900b:	e8 cb ff ff ff       	call   8048fdb <string_length>
 8049010:	89 c7                	mov    %eax,%edi
 8049012:	89 34 24             	mov    %esi,(%esp)
 8049015:	e8 c1 ff ff ff       	call   8048fdb <string_length>
 804901a:	ba 01 00 00 00       	mov    $0x1,%edx
 804901f:	39 c7                	cmp    %eax,%edi
 8049021:	75 3c                	jne    804905f <strings_not_equal+0x65>
 8049023:	0f b6 03             	movzbl (%ebx),%eax
 8049026:	84 c0                	test   %al,%al
 8049028:	74 22                	je     804904c <strings_not_equal+0x52>
 804902a:	3a 06                	cmp    (%esi),%al
 804902c:	75 25                	jne    8049053 <strings_not_equal+0x59>
 804902e:	89 f2                	mov    %esi,%edx
 8049030:	89 d8                	mov    %ebx,%eax
 8049032:	eb 04                	jmp    8049038 <strings_not_equal+0x3e>
 8049034:	3a 0a                	cmp    (%edx),%cl
 8049036:	75 22                	jne    804905a <strings_not_equal+0x60>
 8049038:	83 c0 01             	add    $0x1,%eax
 804903b:	83 c2 01             	add    $0x1,%edx
 804903e:	0f b6 08             	movzbl (%eax),%ecx
 8049041:	84 c9                	test   %cl,%cl
 8049043:	75 ef                	jne    8049034 <strings_not_equal+0x3a>
 8049045:	ba 00 00 00 00       	mov    $0x0,%edx
 804904a:	eb 13                	jmp    804905f <strings_not_equal+0x65>
 804904c:	ba 00 00 00 00       	mov    $0x0,%edx
 8049051:	eb 0c                	jmp    804905f <strings_not_equal+0x65>
 8049053:	ba 01 00 00 00       	mov    $0x1,%edx
 8049058:	eb 05                	jmp    804905f <strings_not_equal+0x65>
 804905a:	ba 01 00 00 00       	mov    $0x1,%edx
 804905f:	89 d0                	mov    %edx,%eax
 8049061:	83 c4 04             	add    $0x4,%esp
 8049064:	5b                   	pop    %ebx
 8049065:	5e                   	pop    %esi
 8049066:	5f                   	pop    %edi
 8049067:	c3                   	ret    

08049068 <initialize_bomb>:
 8049068:	83 ec 1c             	sub    $0x1c,%esp
 804906b:	c7 44 24 04 60 8f 04 	movl   $0x8048f60,0x4(%esp)
 8049072:	08 
 8049073:	c7 04 24 02 00 00 00 	movl   $0x2,(%esp)
 804907a:	e8 51 f7 ff ff       	call   80487d0 <signal@plt>
 804907f:	83 c4 1c             	add    $0x1c,%esp
 8049082:	c3                   	ret    

08049083 <initialize_bomb_solve>:
 8049083:	f3 c3                	repz ret 

08049085 <blank_line>:
 8049085:	56                   	push   %esi
 8049086:	53                   	push   %ebx
 8049087:	83 ec 04             	sub    $0x4,%esp
 804908a:	8b 5c 24 10          	mov    0x10(%esp),%ebx
 804908e:	eb 16                	jmp    80490a6 <blank_line+0x21>
 8049090:	e8 8b f8 ff ff       	call   8048920 <__ctype_b_loc@plt>
 8049095:	83 c3 01             	add    $0x1,%ebx
 8049098:	89 f2                	mov    %esi,%edx
 804909a:	0f be f2             	movsbl %dl,%esi
 804909d:	8b 00                	mov    (%eax),%eax
 804909f:	f6 44 70 01 20       	testb  $0x20,0x1(%eax,%esi,2)
 80490a4:	74 10                	je     80490b6 <blank_line+0x31>
 80490a6:	0f b6 33             	movzbl (%ebx),%esi
 80490a9:	89 f0                	mov    %esi,%eax
 80490ab:	84 c0                	test   %al,%al
 80490ad:	75 e1                	jne    8049090 <blank_line+0xb>
 80490af:	b8 01 00 00 00       	mov    $0x1,%eax
 80490b4:	eb 05                	jmp    80490bb <blank_line+0x36>
 80490b6:	b8 00 00 00 00       	mov    $0x0,%eax
 80490bb:	83 c4 04             	add    $0x4,%esp
 80490be:	5b                   	pop    %ebx
 80490bf:	5e                   	pop    %esi
 80490c0:	c3                   	ret    

080490c1 <skip>:
 80490c1:	53                   	push   %ebx
 80490c2:	83 ec 18             	sub    $0x18,%esp
 80490c5:	a1 cc b4 04 08       	mov    0x804b4cc,%eax
 80490ca:	89 44 24 08          	mov    %eax,0x8(%esp)
 80490ce:	c7 44 24 04 50 00 00 	movl   $0x50,0x4(%esp)
 80490d5:	00 
 80490d6:	a1 c8 b4 04 08       	mov    0x804b4c8,%eax
 80490db:	8d 04 80             	lea    (%eax,%eax,4),%eax
 80490de:	c1 e0 04             	shl    $0x4,%eax
 80490e1:	05 e0 b4 04 08       	add    $0x804b4e0,%eax
 80490e6:	89 04 24             	mov    %eax,(%esp)
 80490e9:	e8 d2 f6 ff ff       	call   80487c0 <fgets@plt>
 80490ee:	89 c3                	mov    %eax,%ebx
 80490f0:	85 c0                	test   %eax,%eax
 80490f2:	74 0c                	je     8049100 <skip+0x3f>
 80490f4:	89 04 24             	mov    %eax,(%esp)
 80490f7:	e8 89 ff ff ff       	call   8049085 <blank_line>
 80490fc:	85 c0                	test   %eax,%eax
 80490fe:	75 c5                	jne    80490c5 <skip+0x4>
 8049100:	89 d8                	mov    %ebx,%eax
 8049102:	83 c4 18             	add    $0x18,%esp
 8049105:	5b                   	pop    %ebx
 8049106:	c3                   	ret    

08049107 <explode_bomb>:
 8049107:	83 ec 1c             	sub    $0x1c,%esp
 804910a:	c7 04 24 63 a2 04 08 	movl   $0x804a263,(%esp)
 8049111:	e8 1a f7 ff ff       	call   8048830 <puts@plt>
 8049116:	c7 04 24 6c a2 04 08 	movl   $0x804a26c,(%esp)
 804911d:	e8 0e f7 ff ff       	call   8048830 <puts@plt>
 8049122:	c7 04 24 08 00 00 00 	movl   $0x8,(%esp)
 8049129:	e8 22 f7 ff ff       	call   8048850 <exit@plt>

0804912e <read_line>:
 804912e:	83 ec 1c             	sub    $0x1c,%esp
 8049131:	89 5c 24 10          	mov    %ebx,0x10(%esp)
 8049135:	89 74 24 14          	mov    %esi,0x14(%esp)
 8049139:	89 7c 24 18          	mov    %edi,0x18(%esp)
 804913d:	e8 7f ff ff ff       	call   80490c1 <skip>
 8049142:	85 c0                	test   %eax,%eax
 8049144:	75 6c                	jne    80491b2 <read_line+0x84>
 8049146:	a1 a4 b4 04 08       	mov    0x804b4a4,%eax
 804914b:	39 05 cc b4 04 08    	cmp    %eax,0x804b4cc
 8049151:	75 18                	jne    804916b <read_line+0x3d>
 8049153:	c7 04 24 83 a2 04 08 	movl   $0x804a283,(%esp)
 804915a:	e8 d1 f6 ff ff       	call   8048830 <puts@plt>
 804915f:	c7 04 24 08 00 00 00 	movl   $0x8,(%esp)
 8049166:	e8 e5 f6 ff ff       	call   8048850 <exit@plt>
 804916b:	c7 04 24 a1 a2 04 08 	movl   $0x804a2a1,(%esp)
 8049172:	e8 a9 f6 ff ff       	call   8048820 <getenv@plt>
 8049177:	85 c0                	test   %eax,%eax
 8049179:	74 0c                	je     8049187 <read_line+0x59>
 804917b:	c7 04 24 00 00 00 00 	movl   $0x0,(%esp)
 8049182:	e8 c9 f6 ff ff       	call   8048850 <exit@plt>
 8049187:	a1 a4 b4 04 08       	mov    0x804b4a4,%eax
 804918c:	a3 cc b4 04 08       	mov    %eax,0x804b4cc
 8049191:	e8 2b ff ff ff       	call   80490c1 <skip>
 8049196:	85 c0                	test   %eax,%eax
 8049198:	75 18                	jne    80491b2 <read_line+0x84>
 804919a:	c7 04 24 83 a2 04 08 	movl   $0x804a283,(%esp)
 80491a1:	e8 8a f6 ff ff       	call   8048830 <puts@plt>
 80491a6:	c7 04 24 00 00 00 00 	movl   $0x0,(%esp)
 80491ad:	e8 9e f6 ff ff       	call   8048850 <exit@plt>
 80491b2:	8b 15 c8 b4 04 08    	mov    0x804b4c8,%edx
 80491b8:	8d 1c 92             	lea    (%edx,%edx,4),%ebx
 80491bb:	c1 e3 04             	shl    $0x4,%ebx
 80491be:	81 c3 e0 b4 04 08    	add    $0x804b4e0,%ebx
 80491c4:	89 df                	mov    %ebx,%edi
 80491c6:	b8 00 00 00 00       	mov    $0x0,%eax
 80491cb:	b9 ff ff ff ff       	mov    $0xffffffff,%ecx
 80491d0:	f2 ae                	repnz scas %es:(%edi),%al
 80491d2:	f7 d1                	not    %ecx
 80491d4:	83 e9 01             	sub    $0x1,%ecx
 80491d7:	83 f9 4e             	cmp    $0x4e,%ecx
 80491da:	7e 35                	jle    8049211 <read_line+0xe3>
 80491dc:	c7 04 24 ac a2 04 08 	movl   $0x804a2ac,(%esp)
 80491e3:	e8 48 f6 ff ff       	call   8048830 <puts@plt>
 80491e8:	a1 c8 b4 04 08       	mov    0x804b4c8,%eax
 80491ed:	8d 50 01             	lea    0x1(%eax),%edx
 80491f0:	89 15 c8 b4 04 08    	mov    %edx,0x804b4c8
 80491f6:	6b c0 50             	imul   $0x50,%eax,%eax
 80491f9:	05 e0 b4 04 08       	add    $0x804b4e0,%eax
 80491fe:	be c7 a2 04 08       	mov    $0x804a2c7,%esi
 8049203:	b9 04 00 00 00       	mov    $0x4,%ecx
 8049208:	89 c7                	mov    %eax,%edi
 804920a:	f3 a5                	rep movsl %ds:(%esi),%es:(%edi)
 804920c:	e8 f6 fe ff ff       	call   8049107 <explode_bomb>
 8049211:	8d 04 92             	lea    (%edx,%edx,4),%eax
 8049214:	c1 e0 04             	shl    $0x4,%eax
 8049217:	c6 84 01 df b4 04 08 	movb   $0x0,0x804b4df(%ecx,%eax,1)
 804921e:	00 
 804921f:	83 c2 01             	add    $0x1,%edx
 8049222:	89 15 c8 b4 04 08    	mov    %edx,0x804b4c8
 8049228:	89 d8                	mov    %ebx,%eax
 804922a:	8b 5c 24 10          	mov    0x10(%esp),%ebx
 804922e:	8b 74 24 14          	mov    0x14(%esp),%esi
 8049232:	8b 7c 24 18          	mov    0x18(%esp),%edi
 8049236:	83 c4 1c             	add    $0x1c,%esp
 8049239:	c3                   	ret    

0804923a <read_six_numbers>:
 804923a:	83 ec 2c             	sub    $0x2c,%esp
 804923d:	8b 44 24 34          	mov    0x34(%esp),%eax
 8049241:	8d 50 14             	lea    0x14(%eax),%edx
 8049244:	89 54 24 1c          	mov    %edx,0x1c(%esp)
 8049248:	8d 50 10             	lea    0x10(%eax),%edx
 804924b:	89 54 24 18          	mov    %edx,0x18(%esp)
 804924f:	8d 50 0c             	lea    0xc(%eax),%edx
 8049252:	89 54 24 14          	mov    %edx,0x14(%esp)
 8049256:	8d 50 08             	lea    0x8(%eax),%edx
 8049259:	89 54 24 10          	mov    %edx,0x10(%esp)
 804925d:	8d 50 04             	lea    0x4(%eax),%edx
 8049260:	89 54 24 0c          	mov    %edx,0xc(%esp)
 8049264:	89 44 24 08          	mov    %eax,0x8(%esp)
 8049268:	c7 44 24 04 d7 a2 04 	movl   $0x804a2d7,0x4(%esp)
 804926f:	08 
 8049270:	8b 44 24 30          	mov    0x30(%esp),%eax
 8049274:	89 04 24             	mov    %eax,(%esp)
 8049277:	e8 14 f6 ff ff       	call   8048890 <__isoc99_sscanf@plt>
 804927c:	83 f8 05             	cmp    $0x5,%eax
 804927f:	7f 05                	jg     8049286 <read_six_numbers+0x4c>
 8049281:	e8 81 fe ff ff       	call   8049107 <explode_bomb>
 8049286:	83 c4 2c             	add    $0x2c,%esp
 8049289:	c3                   	ret    

0804928a <phase_defused>:
 804928a:	83 3d c8 b4 04 08 06 	cmpl   $0x6,0x804b4c8
 8049291:	75 7e                	jne    8049311 <phase_defused+0x87>
 8049293:	81 ec 8c 00 00 00    	sub    $0x8c,%esp
 8049299:	8d 44 24 30          	lea    0x30(%esp),%eax
 804929d:	89 44 24 10          	mov    %eax,0x10(%esp)
 80492a1:	8d 44 24 28          	lea    0x28(%esp),%eax
 80492a5:	89 44 24 0c          	mov    %eax,0xc(%esp)
 80492a9:	8d 44 24 2c          	lea    0x2c(%esp),%eax
 80492ad:	89 44 24 08          	mov    %eax,0x8(%esp)
 80492b1:	c7 44 24 04 e9 a2 04 	movl   $0x804a2e9,0x4(%esp)
 80492b8:	08 
 80492b9:	c7 04 24 d0 b5 04 08 	movl   $0x804b5d0,(%esp)
 80492c0:	e8 cb f5 ff ff       	call   8048890 <__isoc99_sscanf@plt>
 80492c5:	83 f8 03             	cmp    $0x3,%eax
 80492c8:	75 35                	jne    80492ff <phase_defused+0x75>
 80492ca:	c7 44 24 04 f2 a2 04 	movl   $0x804a2f2,0x4(%esp)
 80492d1:	08 
 80492d2:	8d 44 24 30          	lea    0x30(%esp),%eax
 80492d6:	89 04 24             	mov    %eax,(%esp)
 80492d9:	e8 1c fd ff ff       	call   8048ffa <strings_not_equal>
 80492de:	85 c0                	test   %eax,%eax
 80492e0:	75 1d                	jne    80492ff <phase_defused+0x75>
 80492e2:	c7 04 24 b8 a1 04 08 	movl   $0x804a1b8,(%esp)
 80492e9:	e8 42 f5 ff ff       	call   8048830 <puts@plt>
 80492ee:	c7 04 24 e0 a1 04 08 	movl   $0x804a1e0,(%esp)
 80492f5:	e8 36 f5 ff ff       	call   8048830 <puts@plt>
 80492fa:	e8 f0 fb ff ff       	call   8048eef <secret_phase>
 80492ff:	c7 04 24 18 a2 04 08 	movl   $0x804a218,(%esp)
 8049306:	e8 25 f5 ff ff       	call   8048830 <puts@plt>
 804930b:	81 c4 8c 00 00 00    	add    $0x8c,%esp
 8049311:	f3 c3                	repz ret 
 8049313:	90                   	nop
 8049314:	90                   	nop
 8049315:	90                   	nop
 8049316:	90                   	nop
 8049317:	90                   	nop
 8049318:	90                   	nop
 8049319:	90                   	nop
 804931a:	90                   	nop
 804931b:	90                   	nop
 804931c:	90                   	nop
 804931d:	90                   	nop
 804931e:	90                   	nop
 804931f:	90                   	nop

08049320 <rio_readlineb>:
 8049320:	55                   	push   %ebp
 8049321:	57                   	push   %edi
 8049322:	56                   	push   %esi
 8049323:	53                   	push   %ebx
 8049324:	83 ec 3c             	sub    $0x3c,%esp
 8049327:	83 f9 01             	cmp    $0x1,%ecx
 804932a:	0f 86 cd 00 00 00    	jbe    80493fd <rio_readlineb+0xdd>
 8049330:	89 c3                	mov    %eax,%ebx
 8049332:	89 4c 24 1c          	mov    %ecx,0x1c(%esp)
 8049336:	89 54 24 10          	mov    %edx,0x10(%esp)
 804933a:	bd 01 00 00 00       	mov    $0x1,%ebp
 804933f:	8d 78 0c             	lea    0xc(%eax),%edi
 8049342:	eb 38                	jmp    804937c <rio_readlineb+0x5c>
 8049344:	c7 44 24 08 00 20 00 	movl   $0x2000,0x8(%esp)
 804934b:	00 
 804934c:	89 7c 24 04          	mov    %edi,0x4(%esp)
 8049350:	8b 03                	mov    (%ebx),%eax
 8049352:	89 04 24             	mov    %eax,(%esp)
 8049355:	e8 26 f4 ff ff       	call   8048780 <read@plt>
 804935a:	89 43 04             	mov    %eax,0x4(%ebx)
 804935d:	85 c0                	test   %eax,%eax
 804935f:	79 14                	jns    8049375 <rio_readlineb+0x55>
 8049361:	e8 4a f5 ff ff       	call   80488b0 <__errno_location@plt>
 8049366:	83 38 04             	cmpl   $0x4,(%eax)
 8049369:	74 11                	je     804937c <rio_readlineb+0x5c>
 804936b:	90                   	nop
 804936c:	8d 74 26 00          	lea    0x0(%esi,%eiz,1),%esi
 8049370:	e9 9a 00 00 00       	jmp    804940f <rio_readlineb+0xef>
 8049375:	85 c0                	test   %eax,%eax
 8049377:	74 6d                	je     80493e6 <rio_readlineb+0xc6>
 8049379:	89 7b 08             	mov    %edi,0x8(%ebx)
 804937c:	8b 73 04             	mov    0x4(%ebx),%esi
 804937f:	85 f6                	test   %esi,%esi
 8049381:	7e c1                	jle    8049344 <rio_readlineb+0x24>
 8049383:	85 f6                	test   %esi,%esi
 8049385:	0f 95 c0             	setne  %al
 8049388:	0f b6 c0             	movzbl %al,%eax
 804938b:	89 44 24 14          	mov    %eax,0x14(%esp)
 804938f:	8b 53 08             	mov    0x8(%ebx),%edx
 8049392:	89 54 24 18          	mov    %edx,0x18(%esp)
 8049396:	89 44 24 08          	mov    %eax,0x8(%esp)
 804939a:	89 54 24 04          	mov    %edx,0x4(%esp)
 804939e:	8d 44 24 2f          	lea    0x2f(%esp),%eax
 80493a2:	89 04 24             	mov    %eax,(%esp)
 80493a5:	e8 06 f4 ff ff       	call   80487b0 <memcpy@plt>
 80493aa:	8b 44 24 18          	mov    0x18(%esp),%eax
 80493ae:	03 44 24 14          	add    0x14(%esp),%eax
 80493b2:	89 43 08             	mov    %eax,0x8(%ebx)
 80493b5:	2b 74 24 14          	sub    0x14(%esp),%esi
 80493b9:	89 73 04             	mov    %esi,0x4(%ebx)
 80493bc:	83 7c 24 14 01       	cmpl   $0x1,0x14(%esp)
 80493c1:	75 18                	jne    80493db <rio_readlineb+0xbb>
 80493c3:	0f b6 44 24 2f       	movzbl 0x2f(%esp),%eax
 80493c8:	8b 54 24 10          	mov    0x10(%esp),%edx
 80493cc:	88 02                	mov    %al,(%edx)
 80493ce:	83 c2 01             	add    $0x1,%edx
 80493d1:	89 54 24 10          	mov    %edx,0x10(%esp)
 80493d5:	3c 0a                	cmp    $0xa,%al
 80493d7:	75 19                	jne    80493f2 <rio_readlineb+0xd2>
 80493d9:	eb 2b                	jmp    8049406 <rio_readlineb+0xe6>
 80493db:	83 7c 24 14 00       	cmpl   $0x0,0x14(%esp)
 80493e0:	75 34                	jne    8049416 <rio_readlineb+0xf6>
 80493e2:	89 e8                	mov    %ebp,%eax
 80493e4:	eb 02                	jmp    80493e8 <rio_readlineb+0xc8>
 80493e6:	89 e8                	mov    %ebp,%eax
 80493e8:	83 f8 01             	cmp    $0x1,%eax
 80493eb:	75 19                	jne    8049406 <rio_readlineb+0xe6>
 80493ed:	8d 76 00             	lea    0x0(%esi),%esi
 80493f0:	eb 2b                	jmp    804941d <rio_readlineb+0xfd>
 80493f2:	83 c5 01             	add    $0x1,%ebp
 80493f5:	3b 6c 24 1c          	cmp    0x1c(%esp),%ebp
 80493f9:	75 81                	jne    804937c <rio_readlineb+0x5c>
 80493fb:	eb 09                	jmp    8049406 <rio_readlineb+0xe6>
 80493fd:	89 54 24 10          	mov    %edx,0x10(%esp)
 8049401:	bd 01 00 00 00       	mov    $0x1,%ebp
 8049406:	8b 44 24 10          	mov    0x10(%esp),%eax
 804940a:	c6 00 00             	movb   $0x0,(%eax)
 804940d:	eb 13                	jmp    8049422 <rio_readlineb+0x102>
 804940f:	bd ff ff ff ff       	mov    $0xffffffff,%ebp
 8049414:	eb 0c                	jmp    8049422 <rio_readlineb+0x102>
 8049416:	bd ff ff ff ff       	mov    $0xffffffff,%ebp
 804941b:	eb 05                	jmp    8049422 <rio_readlineb+0x102>
 804941d:	bd 00 00 00 00       	mov    $0x0,%ebp
 8049422:	89 e8                	mov    %ebp,%eax
 8049424:	83 c4 3c             	add    $0x3c,%esp
 8049427:	5b                   	pop    %ebx
 8049428:	5e                   	pop    %esi
 8049429:	5f                   	pop    %edi
 804942a:	5d                   	pop    %ebp
 804942b:	c3                   	ret    

0804942c <sigalrm_handler>:
 804942c:	83 ec 1c             	sub    $0x1c,%esp
 804942f:	c7 44 24 08 00 00 00 	movl   $0x0,0x8(%esp)
 8049436:	00 
 8049437:	c7 44 24 04 58 a3 04 	movl   $0x804a358,0x4(%esp)
 804943e:	08 
 804943f:	a1 a0 b4 04 08       	mov    0x804b4a0,%eax
 8049444:	89 04 24             	mov    %eax,(%esp)
 8049447:	e8 24 f4 ff ff       	call   8048870 <fprintf@plt>
 804944c:	c7 04 24 01 00 00 00 	movl   $0x1,(%esp)
 8049453:	e8 f8 f3 ff ff       	call   8048850 <exit@plt>

08049458 <submitr>:
 8049458:	55                   	push   %ebp
 8049459:	57                   	push   %edi
 804945a:	56                   	push   %esi
 804945b:	53                   	push   %ebx
 804945c:	81 ec 6c a0 00 00    	sub    $0xa06c,%esp
 8049462:	8b 9c 24 94 a0 00 00 	mov    0xa094(%esp),%ebx
 8049469:	c7 84 24 40 20 00 00 	movl   $0x0,0x2040(%esp)
 8049470:	00 00 00 00 
 8049474:	c7 44 24 08 00 00 00 	movl   $0x0,0x8(%esp)
 804947b:	00 
 804947c:	c7 44 24 04 01 00 00 	movl   $0x1,0x4(%esp)
 8049483:	00 
 8049484:	c7 04 24 02 00 00 00 	movl   $0x2,(%esp)
 804948b:	e8 40 f4 ff ff       	call   80488d0 <socket@plt>
 8049490:	89 c5                	mov    %eax,%ebp
 8049492:	85 c0                	test   %eax,%eax
 8049494:	79 55                	jns    80494eb <submitr+0x93>
 8049496:	8b 84 24 98 a0 00 00 	mov    0xa098(%esp),%eax
 804949d:	c7 00 45 72 72 6f    	movl   $0x6f727245,(%eax)
 80494a3:	c7 40 04 72 3a 20 43 	movl   $0x43203a72,0x4(%eax)
 80494aa:	c7 40 08 6c 69 65 6e 	movl   $0x6e65696c,0x8(%eax)
 80494b1:	c7 40 0c 74 20 75 6e 	movl   $0x6e752074,0xc(%eax)
 80494b8:	c7 40 10 61 62 6c 65 	movl   $0x656c6261,0x10(%eax)
 80494bf:	c7 40 14 20 74 6f 20 	movl   $0x206f7420,0x14(%eax)
 80494c6:	c7 40 18 63 72 65 61 	movl   $0x61657263,0x18(%eax)
 80494cd:	c7 40 1c 74 65 20 73 	movl   $0x73206574,0x1c(%eax)
 80494d4:	c7 40 20 6f 63 6b 65 	movl   $0x656b636f,0x20(%eax)
 80494db:	66 c7 40 24 74 00    	movw   $0x74,0x24(%eax)
 80494e1:	b8 ff ff ff ff       	mov    $0xffffffff,%eax
 80494e6:	e9 47 07 00 00       	jmp    8049c32 <submitr+0x7da>
 80494eb:	8b 84 24 80 a0 00 00 	mov    0xa080(%esp),%eax
 80494f2:	89 04 24             	mov    %eax,(%esp)
 80494f5:	e8 e6 f3 ff ff       	call   80488e0 <gethostbyname@plt>
 80494fa:	85 c0                	test   %eax,%eax
 80494fc:	75 6f                	jne    804956d <submitr+0x115>
 80494fe:	8b 94 24 98 a0 00 00 	mov    0xa098(%esp),%edx
 8049505:	c7 02 45 72 72 6f    	movl   $0x6f727245,(%edx)
 804950b:	c7 42 04 72 3a 20 44 	movl   $0x44203a72,0x4(%edx)
 8049512:	c7 42 08 4e 53 20 69 	movl   $0x6920534e,0x8(%edx)
 8049519:	c7 42 0c 73 20 75 6e 	movl   $0x6e752073,0xc(%edx)
 8049520:	c7 42 10 61 62 6c 65 	movl   $0x656c6261,0x10(%edx)
 8049527:	c7 42 14 20 74 6f 20 	movl   $0x206f7420,0x14(%edx)
 804952e:	c7 42 18 72 65 73 6f 	movl   $0x6f736572,0x18(%edx)
 8049535:	c7 42 1c 6c 76 65 20 	movl   $0x2065766c,0x1c(%edx)
 804953c:	c7 42 20 73 65 72 76 	movl   $0x76726573,0x20(%edx)
 8049543:	c7 42 24 65 72 20 61 	movl   $0x61207265,0x24(%edx)
 804954a:	c7 42 28 64 64 72 65 	movl   $0x65726464,0x28(%edx)
 8049551:	66 c7 42 2c 73 73    	movw   $0x7373,0x2c(%edx)
 8049557:	c6 42 2e 00          	movb   $0x0,0x2e(%edx)
 804955b:	89 2c 24             	mov    %ebp,(%esp)
 804955e:	e8 ad f3 ff ff       	call   8048910 <close@plt>
 8049563:	b8 ff ff ff ff       	mov    $0xffffffff,%eax
 8049568:	e9 c5 06 00 00       	jmp    8049c32 <submitr+0x7da>
 804956d:	8d b4 24 50 a0 00 00 	lea    0xa050(%esp),%esi
 8049574:	c7 84 24 50 a0 00 00 	movl   $0x0,0xa050(%esp)
 804957b:	00 00 00 00 
 804957f:	c7 84 24 54 a0 00 00 	movl   $0x0,0xa054(%esp)
 8049586:	00 00 00 00 
 804958a:	c7 84 24 58 a0 00 00 	movl   $0x0,0xa058(%esp)
 8049591:	00 00 00 00 
 8049595:	c7 84 24 5c a0 00 00 	movl   $0x0,0xa05c(%esp)
 804959c:	00 00 00 00 
 80495a0:	66 c7 84 24 50 a0 00 	movw   $0x2,0xa050(%esp)
 80495a7:	00 02 00 
 80495aa:	8b 50 0c             	mov    0xc(%eax),%edx
 80495ad:	89 54 24 08          	mov    %edx,0x8(%esp)
 80495b1:	8d 94 24 54 a0 00 00 	lea    0xa054(%esp),%edx
 80495b8:	89 54 24 04          	mov    %edx,0x4(%esp)
 80495bc:	8b 40 10             	mov    0x10(%eax),%eax
 80495bf:	8b 00                	mov    (%eax),%eax
 80495c1:	89 04 24             	mov    %eax,(%esp)
 80495c4:	e8 37 f2 ff ff       	call   8048800 <bcopy@plt>
 80495c9:	0f b7 84 24 84 a0 00 	movzwl 0xa084(%esp),%eax
 80495d0:	00 
 80495d1:	66 c1 c8 08          	ror    $0x8,%ax
 80495d5:	66 89 84 24 52 a0 00 	mov    %ax,0xa052(%esp)
 80495dc:	00 
 80495dd:	c7 44 24 08 10 00 00 	movl   $0x10,0x8(%esp)
 80495e4:	00 
 80495e5:	89 74 24 04          	mov    %esi,0x4(%esp)
 80495e9:	89 2c 24             	mov    %ebp,(%esp)
 80495ec:	e8 0f f3 ff ff       	call   8048900 <connect@plt>
 80495f1:	85 c0                	test   %eax,%eax
 80495f3:	79 61                	jns    8049656 <submitr+0x1fe>
 80495f5:	8b 8c 24 98 a0 00 00 	mov    0xa098(%esp),%ecx
 80495fc:	c7 01 45 72 72 6f    	movl   $0x6f727245,(%ecx)
 8049602:	c7 41 04 72 3a 20 55 	movl   $0x55203a72,0x4(%ecx)
 8049609:	c7 41 08 6e 61 62 6c 	movl   $0x6c62616e,0x8(%ecx)
 8049610:	c7 41 0c 65 20 74 6f 	movl   $0x6f742065,0xc(%ecx)
 8049617:	c7 41 10 20 63 6f 6e 	movl   $0x6e6f6320,0x10(%ecx)
 804961e:	c7 41 14 6e 65 63 74 	movl   $0x7463656e,0x14(%ecx)
 8049625:	c7 41 18 20 74 6f 20 	movl   $0x206f7420,0x18(%ecx)
 804962c:	c7 41 1c 74 68 65 20 	movl   $0x20656874,0x1c(%ecx)
 8049633:	c7 41 20 73 65 72 76 	movl   $0x76726573,0x20(%ecx)
 804963a:	66 c7 41 24 65 72    	movw   $0x7265,0x24(%ecx)
 8049640:	c6 41 26 00          	movb   $0x0,0x26(%ecx)
 8049644:	89 2c 24             	mov    %ebp,(%esp)
 8049647:	e8 c4 f2 ff ff       	call   8048910 <close@plt>
 804964c:	b8 ff ff ff ff       	mov    $0xffffffff,%eax
 8049651:	e9 dc 05 00 00       	jmp    8049c32 <submitr+0x7da>
 8049656:	ba ff ff ff ff       	mov    $0xffffffff,%edx
 804965b:	89 df                	mov    %ebx,%edi
 804965d:	b8 00 00 00 00       	mov    $0x0,%eax
 8049662:	89 d1                	mov    %edx,%ecx
 8049664:	f2 ae                	repnz scas %es:(%edi),%al
 8049666:	89 ce                	mov    %ecx,%esi
 8049668:	f7 d6                	not    %esi
 804966a:	8b bc 24 88 a0 00 00 	mov    0xa088(%esp),%edi
 8049671:	89 d1                	mov    %edx,%ecx
 8049673:	f2 ae                	repnz scas %es:(%edi),%al
 8049675:	89 4c 24 28          	mov    %ecx,0x28(%esp)
 8049679:	8b bc 24 8c a0 00 00 	mov    0xa08c(%esp),%edi
 8049680:	89 d1                	mov    %edx,%ecx
 8049682:	f2 ae                	repnz scas %es:(%edi),%al
 8049684:	f7 d1                	not    %ecx
 8049686:	89 4c 24 2c          	mov    %ecx,0x2c(%esp)
 804968a:	8b bc 24 90 a0 00 00 	mov    0xa090(%esp),%edi
 8049691:	89 d1                	mov    %edx,%ecx
 8049693:	f2 ae                	repnz scas %es:(%edi),%al
 8049695:	8b 44 24 2c          	mov    0x2c(%esp),%eax
 8049699:	2b 44 24 28          	sub    0x28(%esp),%eax
 804969d:	89 c2                	mov    %eax,%edx
 804969f:	29 ca                	sub    %ecx,%edx
 80496a1:	8d 44 76 fd          	lea    -0x3(%esi,%esi,2),%eax
 80496a5:	8d 44 02 7b          	lea    0x7b(%edx,%eax,1),%eax
 80496a9:	3d 00 20 00 00       	cmp    $0x2000,%eax
 80496ae:	76 7a                	jbe    804972a <submitr+0x2d2>
 80496b0:	8b 84 24 98 a0 00 00 	mov    0xa098(%esp),%eax
 80496b7:	c7 00 45 72 72 6f    	movl   $0x6f727245,(%eax)
 80496bd:	c7 40 04 72 3a 20 52 	movl   $0x52203a72,0x4(%eax)
 80496c4:	c7 40 08 65 73 75 6c 	movl   $0x6c757365,0x8(%eax)
 80496cb:	c7 40 0c 74 20 73 74 	movl   $0x74732074,0xc(%eax)
 80496d2:	c7 40 10 72 69 6e 67 	movl   $0x676e6972,0x10(%eax)
 80496d9:	c7 40 14 20 74 6f 6f 	movl   $0x6f6f7420,0x14(%eax)
 80496e0:	c7 40 18 20 6c 61 72 	movl   $0x72616c20,0x18(%eax)
 80496e7:	c7 40 1c 67 65 2e 20 	movl   $0x202e6567,0x1c(%eax)
 80496ee:	c7 40 20 49 6e 63 72 	movl   $0x72636e49,0x20(%eax)
 80496f5:	c7 40 24 65 61 73 65 	movl   $0x65736165,0x24(%eax)
 80496fc:	c7 40 28 20 53 55 42 	movl   $0x42555320,0x28(%eax)
 8049703:	c7 40 2c 4d 49 54 52 	movl   $0x5254494d,0x2c(%eax)
 804970a:	c7 40 30 5f 4d 41 58 	movl   $0x58414d5f,0x30(%eax)
 8049711:	c7 40 34 42 55 46 00 	movl   $0x465542,0x34(%eax)
 8049718:	89 2c 24             	mov    %ebp,(%esp)
 804971b:	e8 f0 f1 ff ff       	call   8048910 <close@plt>
 8049720:	b8 ff ff ff ff       	mov    $0xffffffff,%eax
 8049725:	e9 08 05 00 00       	jmp    8049c32 <submitr+0x7da>
 804972a:	8d 94 24 44 40 00 00 	lea    0x4044(%esp),%edx
 8049731:	b9 00 08 00 00       	mov    $0x800,%ecx
 8049736:	b8 00 00 00 00       	mov    $0x0,%eax
 804973b:	89 d7                	mov    %edx,%edi
 804973d:	f3 ab                	rep stos %eax,%es:(%edi)
 804973f:	89 df                	mov    %ebx,%edi
 8049741:	b9 ff ff ff ff       	mov    $0xffffffff,%ecx
 8049746:	f2 ae                	repnz scas %es:(%edi),%al
 8049748:	f7 d1                	not    %ecx
 804974a:	89 cf                	mov    %ecx,%edi
 804974c:	83 ef 01             	sub    $0x1,%edi
 804974f:	0f 84 f3 03 00 00    	je     8049b48 <submitr+0x6f0>
 8049755:	89 d6                	mov    %edx,%esi
 8049757:	0f b6 03             	movzbl (%ebx),%eax
 804975a:	3c 2d                	cmp    $0x2d,%al
 804975c:	74 24                	je     8049782 <submitr+0x32a>
 804975e:	3c 2a                	cmp    $0x2a,%al
 8049760:	74 20                	je     8049782 <submitr+0x32a>
 8049762:	3c 2e                	cmp    $0x2e,%al
 8049764:	74 1c                	je     8049782 <submitr+0x32a>
 8049766:	3c 5f                	cmp    $0x5f,%al
 8049768:	74 18                	je     8049782 <submitr+0x32a>
 804976a:	8d 50 d0             	lea    -0x30(%eax),%edx
 804976d:	80 fa 09             	cmp    $0x9,%dl
 8049770:	76 10                	jbe    8049782 <submitr+0x32a>
 8049772:	8d 50 bf             	lea    -0x41(%eax),%edx
 8049775:	80 fa 19             	cmp    $0x19,%dl
 8049778:	76 08                	jbe    8049782 <submitr+0x32a>
 804977a:	8d 50 9f             	lea    -0x61(%eax),%edx
 804977d:	80 fa 19             	cmp    $0x19,%dl
 8049780:	77 07                	ja     8049789 <submitr+0x331>
 8049782:	88 06                	mov    %al,(%esi)
 8049784:	83 c6 01             	add    $0x1,%esi
 8049787:	eb 51                	jmp    80497da <submitr+0x382>
 8049789:	3c 20                	cmp    $0x20,%al
 804978b:	75 08                	jne    8049795 <submitr+0x33d>
 804978d:	c6 06 2b             	movb   $0x2b,(%esi)
 8049790:	83 c6 01             	add    $0x1,%esi
 8049793:	eb 45                	jmp    80497da <submitr+0x382>
 8049795:	8d 50 e0             	lea    -0x20(%eax),%edx
 8049798:	80 fa 5f             	cmp    $0x5f,%dl
 804979b:	76 08                	jbe    80497a5 <submitr+0x34d>
 804979d:	3c 09                	cmp    $0x9,%al
 804979f:	0f 85 0d 04 00 00    	jne    8049bb2 <submitr+0x75a>
 80497a5:	0f b6 c0             	movzbl %al,%eax
 80497a8:	89 44 24 08          	mov    %eax,0x8(%esp)
 80497ac:	c7 44 24 04 64 a4 04 	movl   $0x804a464,0x4(%esp)
 80497b3:	08 
 80497b4:	8d 54 24 38          	lea    0x38(%esp),%edx
 80497b8:	89 14 24             	mov    %edx,(%esp)
 80497bb:	e8 00 f1 ff ff       	call   80488c0 <sprintf@plt>
 80497c0:	0f b6 44 24 38       	movzbl 0x38(%esp),%eax
 80497c5:	88 06                	mov    %al,(%esi)
 80497c7:	0f b6 44 24 39       	movzbl 0x39(%esp),%eax
 80497cc:	88 46 01             	mov    %al,0x1(%esi)
 80497cf:	0f b6 44 24 3a       	movzbl 0x3a(%esp),%eax
 80497d4:	88 46 02             	mov    %al,0x2(%esi)
 80497d7:	83 c6 03             	add    $0x3,%esi
 80497da:	83 c3 01             	add    $0x1,%ebx
 80497dd:	83 ef 01             	sub    $0x1,%edi
 80497e0:	0f 85 71 ff ff ff    	jne    8049757 <submitr+0x2ff>
 80497e6:	e9 5d 03 00 00       	jmp    8049b48 <submitr+0x6f0>
 80497eb:	89 5c 24 08          	mov    %ebx,0x8(%esp)
 80497ef:	89 74 24 04          	mov    %esi,0x4(%esp)
 80497f3:	89 2c 24             	mov    %ebp,(%esp)
 80497f6:	e8 85 f0 ff ff       	call   8048880 <write@plt>
 80497fb:	85 c0                	test   %eax,%eax
 80497fd:	7f 0f                	jg     804980e <submitr+0x3b6>
 80497ff:	e8 ac f0 ff ff       	call   80488b0 <__errno_location@plt>
 8049804:	83 38 04             	cmpl   $0x4,(%eax)
 8049807:	75 0f                	jne    8049818 <submitr+0x3c0>
 8049809:	b8 00 00 00 00       	mov    $0x0,%eax
 804980e:	01 c6                	add    %eax,%esi
 8049810:	29 c3                	sub    %eax,%ebx
 8049812:	75 d7                	jne    80497eb <submitr+0x393>
 8049814:	85 ff                	test   %edi,%edi
 8049816:	79 65                	jns    804987d <submitr+0x425>
 8049818:	8b 8c 24 98 a0 00 00 	mov    0xa098(%esp),%ecx
 804981f:	c7 01 45 72 72 6f    	movl   $0x6f727245,(%ecx)
 8049825:	c7 41 04 72 3a 20 43 	movl   $0x43203a72,0x4(%ecx)
 804982c:	c7 41 08 6c 69 65 6e 	movl   $0x6e65696c,0x8(%ecx)
 8049833:	c7 41 0c 74 20 75 6e 	movl   $0x6e752074,0xc(%ecx)
 804983a:	c7 41 10 61 62 6c 65 	movl   $0x656c6261,0x10(%ecx)
 8049841:	c7 41 14 20 74 6f 20 	movl   $0x206f7420,0x14(%ecx)
 8049848:	c7 41 18 77 72 69 74 	movl   $0x74697277,0x18(%ecx)
 804984f:	c7 41 1c 65 20 74 6f 	movl   $0x6f742065,0x1c(%ecx)
 8049856:	c7 41 20 20 74 68 65 	movl   $0x65687420,0x20(%ecx)
 804985d:	c7 41 24 20 73 65 72 	movl   $0x72657320,0x24(%ecx)
 8049864:	c7 41 28 76 65 72 00 	movl   $0x726576,0x28(%ecx)
 804986b:	89 2c 24             	mov    %ebp,(%esp)
 804986e:	e8 9d f0 ff ff       	call   8048910 <close@plt>
 8049873:	b8 ff ff ff ff       	mov    $0xffffffff,%eax
 8049878:	e9 b5 03 00 00       	jmp    8049c32 <submitr+0x7da>
 804987d:	89 ac 24 44 80 00 00 	mov    %ebp,0x8044(%esp)
 8049884:	c7 84 24 48 80 00 00 	movl   $0x0,0x8048(%esp)
 804988b:	00 00 00 00 
 804988f:	8d 84 24 50 80 00 00 	lea    0x8050(%esp),%eax
 8049896:	89 84 24 4c 80 00 00 	mov    %eax,0x804c(%esp)
 804989d:	b9 00 20 00 00       	mov    $0x2000,%ecx
 80498a2:	8d 94 24 44 60 00 00 	lea    0x6044(%esp),%edx
 80498a9:	8d 84 24 44 80 00 00 	lea    0x8044(%esp),%eax
 80498b0:	e8 6b fa ff ff       	call   8049320 <rio_readlineb>
 80498b5:	85 c0                	test   %eax,%eax
 80498b7:	7f 79                	jg     8049932 <submitr+0x4da>
 80498b9:	8b 84 24 98 a0 00 00 	mov    0xa098(%esp),%eax
 80498c0:	c7 00 45 72 72 6f    	movl   $0x6f727245,(%eax)
 80498c6:	c7 40 04 72 3a 20 43 	movl   $0x43203a72,0x4(%eax)
 80498cd:	c7 40 08 6c 69 65 6e 	movl   $0x6e65696c,0x8(%eax)
 80498d4:	c7 40 0c 74 20 75 6e 	movl   $0x6e752074,0xc(%eax)
 80498db:	c7 40 10 61 62 6c 65 	movl   $0x656c6261,0x10(%eax)
 80498e2:	c7 40 14 20 74 6f 20 	movl   $0x206f7420,0x14(%eax)
 80498e9:	c7 40 18 72 65 61 64 	movl   $0x64616572,0x18(%eax)
 80498f0:	c7 40 1c 20 66 69 72 	movl   $0x72696620,0x1c(%eax)
 80498f7:	c7 40 20 73 74 20 68 	movl   $0x68207473,0x20(%eax)
 80498fe:	c7 40 24 65 61 64 65 	movl   $0x65646165,0x24(%eax)
 8049905:	c7 40 28 72 20 66 72 	movl   $0x72662072,0x28(%eax)
 804990c:	c7 40 2c 6f 6d 20 73 	movl   $0x73206d6f,0x2c(%eax)
 8049913:	c7 40 30 65 72 76 65 	movl   $0x65767265,0x30(%eax)
 804991a:	66 c7 40 34 72 00    	movw   $0x72,0x34(%eax)
 8049920:	89 2c 24             	mov    %ebp,(%esp)
 8049923:	e8 e8 ef ff ff       	call   8048910 <close@plt>
 8049928:	b8 ff ff ff ff       	mov    $0xffffffff,%eax
 804992d:	e9 00 03 00 00       	jmp    8049c32 <submitr+0x7da>
 8049932:	8d 44 24 40          	lea    0x40(%esp),%eax
 8049936:	89 44 24 10          	mov    %eax,0x10(%esp)
 804993a:	8d 84 24 40 20 00 00 	lea    0x2040(%esp),%eax
 8049941:	89 44 24 0c          	mov    %eax,0xc(%esp)
 8049945:	8d 84 24 44 20 00 00 	lea    0x2044(%esp),%eax
 804994c:	89 44 24 08          	mov    %eax,0x8(%esp)
 8049950:	c7 44 24 04 6b a4 04 	movl   $0x804a46b,0x4(%esp)
 8049957:	08 
 8049958:	8d 84 24 44 60 00 00 	lea    0x6044(%esp),%eax
 804995f:	89 04 24             	mov    %eax,(%esp)
 8049962:	e8 29 ef ff ff       	call   8048890 <__isoc99_sscanf@plt>
 8049967:	8b 84 24 40 20 00 00 	mov    0x2040(%esp),%eax
 804996e:	3d c8 00 00 00       	cmp    $0xc8,%eax
 8049973:	0f 84 c1 00 00 00    	je     8049a3a <submitr+0x5e2>
 8049979:	8d 54 24 40          	lea    0x40(%esp),%edx
 804997d:	89 54 24 0c          	mov    %edx,0xc(%esp)
 8049981:	89 44 24 08          	mov    %eax,0x8(%esp)
 8049985:	c7 44 24 04 7c a3 04 	movl   $0x804a37c,0x4(%esp)
 804998c:	08 
 804998d:	8b 94 24 98 a0 00 00 	mov    0xa098(%esp),%edx
 8049994:	89 14 24             	mov    %edx,(%esp)
 8049997:	e8 24 ef ff ff       	call   80488c0 <sprintf@plt>
 804999c:	89 2c 24             	mov    %ebp,(%esp)
 804999f:	e8 6c ef ff ff       	call   8048910 <close@plt>
 80499a4:	b8 ff ff ff ff       	mov    $0xffffffff,%eax
 80499a9:	e9 84 02 00 00       	jmp    8049c32 <submitr+0x7da>
 80499ae:	b9 00 20 00 00       	mov    $0x2000,%ecx
 80499b3:	8d 94 24 44 60 00 00 	lea    0x6044(%esp),%edx
 80499ba:	8d 84 24 44 80 00 00 	lea    0x8044(%esp),%eax
 80499c1:	e8 5a f9 ff ff       	call   8049320 <rio_readlineb>
 80499c6:	85 c0                	test   %eax,%eax
 80499c8:	7f 70                	jg     8049a3a <submitr+0x5e2>
 80499ca:	8b 8c 24 98 a0 00 00 	mov    0xa098(%esp),%ecx
 80499d1:	c7 01 45 72 72 6f    	movl   $0x6f727245,(%ecx)
 80499d7:	c7 41 04 72 3a 20 43 	movl   $0x43203a72,0x4(%ecx)
 80499de:	c7 41 08 6c 69 65 6e 	movl   $0x6e65696c,0x8(%ecx)
 80499e5:	c7 41 0c 74 20 75 6e 	movl   $0x6e752074,0xc(%ecx)
 80499ec:	c7 41 10 61 62 6c 65 	movl   $0x656c6261,0x10(%ecx)
 80499f3:	c7 41 14 20 74 6f 20 	movl   $0x206f7420,0x14(%ecx)
 80499fa:	c7 41 18 72 65 61 64 	movl   $0x64616572,0x18(%ecx)
 8049a01:	c7 41 1c 20 68 65 61 	movl   $0x61656820,0x1c(%ecx)
 8049a08:	c7 41 20 64 65 72 73 	movl   $0x73726564,0x20(%ecx)
 8049a0f:	c7 41 24 20 66 72 6f 	movl   $0x6f726620,0x24(%ecx)
 8049a16:	c7 41 28 6d 20 73 65 	movl   $0x6573206d,0x28(%ecx)
 8049a1d:	c7 41 2c 72 76 65 72 	movl   $0x72657672,0x2c(%ecx)
 8049a24:	c6 41 30 00          	movb   $0x0,0x30(%ecx)
 8049a28:	89 2c 24             	mov    %ebp,(%esp)
 8049a2b:	e8 e0 ee ff ff       	call   8048910 <close@plt>
 8049a30:	b8 ff ff ff ff       	mov    $0xffffffff,%eax
 8049a35:	e9 f8 01 00 00       	jmp    8049c32 <submitr+0x7da>
 8049a3a:	80 bc 24 44 60 00 00 	cmpb   $0xd,0x6044(%esp)
 8049a41:	0d 
 8049a42:	0f 85 66 ff ff ff    	jne    80499ae <submitr+0x556>
 8049a48:	80 bc 24 45 60 00 00 	cmpb   $0xa,0x6045(%esp)
 8049a4f:	0a 
 8049a50:	0f 85 58 ff ff ff    	jne    80499ae <submitr+0x556>
 8049a56:	80 bc 24 46 60 00 00 	cmpb   $0x0,0x6046(%esp)
 8049a5d:	00 
 8049a5e:	0f 85 4a ff ff ff    	jne    80499ae <submitr+0x556>
 8049a64:	b9 00 20 00 00       	mov    $0x2000,%ecx
 8049a69:	8d 94 24 44 60 00 00 	lea    0x6044(%esp),%edx
 8049a70:	8d 84 24 44 80 00 00 	lea    0x8044(%esp),%eax
 8049a77:	e8 a4 f8 ff ff       	call   8049320 <rio_readlineb>
 8049a7c:	85 c0                	test   %eax,%eax
 8049a7e:	7f 7a                	jg     8049afa <submitr+0x6a2>
 8049a80:	8b 84 24 98 a0 00 00 	mov    0xa098(%esp),%eax
 8049a87:	c7 00 45 72 72 6f    	movl   $0x6f727245,(%eax)
 8049a8d:	c7 40 04 72 3a 20 43 	movl   $0x43203a72,0x4(%eax)
 8049a94:	c7 40 08 6c 69 65 6e 	movl   $0x6e65696c,0x8(%eax)
 8049a9b:	c7 40 0c 74 20 75 6e 	movl   $0x6e752074,0xc(%eax)
 8049aa2:	c7 40 10 61 62 6c 65 	movl   $0x656c6261,0x10(%eax)
 8049aa9:	c7 40 14 20 74 6f 20 	movl   $0x206f7420,0x14(%eax)
 8049ab0:	c7 40 18 72 65 61 64 	movl   $0x64616572,0x18(%eax)
 8049ab7:	c7 40 1c 20 73 74 61 	movl   $0x61747320,0x1c(%eax)
 8049abe:	c7 40 20 74 75 73 20 	movl   $0x20737574,0x20(%eax)
 8049ac5:	c7 40 24 6d 65 73 73 	movl   $0x7373656d,0x24(%eax)
 8049acc:	c7 40 28 61 67 65 20 	movl   $0x20656761,0x28(%eax)
 8049ad3:	c7 40 2c 66 72 6f 6d 	movl   $0x6d6f7266,0x2c(%eax)
 8049ada:	c7 40 30 20 73 65 72 	movl   $0x72657320,0x30(%eax)
 8049ae1:	c7 40 34 76 65 72 00 	movl   $0x726576,0x34(%eax)
 8049ae8:	89 2c 24             	mov    %ebp,(%esp)
 8049aeb:	e8 20 ee ff ff       	call   8048910 <close@plt>
 8049af0:	b8 ff ff ff ff       	mov    $0xffffffff,%eax
 8049af5:	e9 38 01 00 00       	jmp    8049c32 <submitr+0x7da>
 8049afa:	8d 84 24 44 60 00 00 	lea    0x6044(%esp),%eax
 8049b01:	89 44 24 04          	mov    %eax,0x4(%esp)
 8049b05:	8b 94 24 98 a0 00 00 	mov    0xa098(%esp),%edx
 8049b0c:	89 14 24             	mov    %edx,(%esp)
 8049b0f:	e8 fc ec ff ff       	call   8048810 <strcpy@plt>
 8049b14:	89 2c 24             	mov    %ebp,(%esp)
 8049b17:	e8 f4 ed ff ff       	call   8048910 <close@plt>
 8049b1c:	b8 ff ff ff ff       	mov    $0xffffffff,%eax
 8049b21:	8b 8c 24 98 a0 00 00 	mov    0xa098(%esp),%ecx
 8049b28:	80 39 4f             	cmpb   $0x4f,(%ecx)
 8049b2b:	0f 85 01 01 00 00    	jne    8049c32 <submitr+0x7da>
 8049b31:	80 79 01 4b          	cmpb   $0x4b,0x1(%ecx)
 8049b35:	0f 85 f7 00 00 00    	jne    8049c32 <submitr+0x7da>
 8049b3b:	80 79 02 01          	cmpb   $0x1,0x2(%ecx)
 8049b3f:	19 c0                	sbb    %eax,%eax
 8049b41:	f7 d0                	not    %eax
 8049b43:	e9 ea 00 00 00       	jmp    8049c32 <submitr+0x7da>
 8049b48:	8d 84 24 44 40 00 00 	lea    0x4044(%esp),%eax
 8049b4f:	89 44 24 14          	mov    %eax,0x14(%esp)
 8049b53:	8b 84 24 90 a0 00 00 	mov    0xa090(%esp),%eax
 8049b5a:	89 44 24 10          	mov    %eax,0x10(%esp)
 8049b5e:	8b 94 24 8c a0 00 00 	mov    0xa08c(%esp),%edx
 8049b65:	89 54 24 0c          	mov    %edx,0xc(%esp)
 8049b69:	8b 8c 24 88 a0 00 00 	mov    0xa088(%esp),%ecx
 8049b70:	89 4c 24 08          	mov    %ecx,0x8(%esp)
 8049b74:	c7 44 24 04 ac a3 04 	movl   $0x804a3ac,0x4(%esp)
 8049b7b:	08 
 8049b7c:	8d bc 24 44 60 00 00 	lea    0x6044(%esp),%edi
 8049b83:	89 3c 24             	mov    %edi,(%esp)
 8049b86:	e8 35 ed ff ff       	call   80488c0 <sprintf@plt>
 8049b8b:	b8 00 00 00 00       	mov    $0x0,%eax
 8049b90:	b9 ff ff ff ff       	mov    $0xffffffff,%ecx
 8049b95:	f2 ae                	repnz scas %es:(%edi),%al
 8049b97:	f7 d1                	not    %ecx
 8049b99:	8d 79 ff             	lea    -0x1(%ecx),%edi
 8049b9c:	89 fb                	mov    %edi,%ebx
 8049b9e:	8d b4 24 44 60 00 00 	lea    0x6044(%esp),%esi
 8049ba5:	85 ff                	test   %edi,%edi
 8049ba7:	0f 85 3e fc ff ff    	jne    80497eb <submitr+0x393>
 8049bad:	e9 cb fc ff ff       	jmp    804987d <submitr+0x425>
 8049bb2:	8b bc 24 98 a0 00 00 	mov    0xa098(%esp),%edi
 8049bb9:	be f8 a3 04 08       	mov    $0x804a3f8,%esi
 8049bbe:	b8 43 00 00 00       	mov    $0x43,%eax
 8049bc3:	f7 c7 01 00 00 00    	test   $0x1,%edi
 8049bc9:	74 1d                	je     8049be8 <submitr+0x790>
 8049bcb:	0f b6 05 f8 a3 04 08 	movzbl 0x804a3f8,%eax
 8049bd2:	88 07                	mov    %al,(%edi)
 8049bd4:	8b bc 24 98 a0 00 00 	mov    0xa098(%esp),%edi
 8049bdb:	83 c7 01             	add    $0x1,%edi
 8049bde:	be f9 a3 04 08       	mov    $0x804a3f9,%esi
 8049be3:	b8 42 00 00 00       	mov    $0x42,%eax
 8049be8:	f7 c7 02 00 00 00    	test   $0x2,%edi
 8049bee:	74 0f                	je     8049bff <submitr+0x7a7>
 8049bf0:	0f b7 16             	movzwl (%esi),%edx
 8049bf3:	66 89 17             	mov    %dx,(%edi)
 8049bf6:	83 c7 02             	add    $0x2,%edi
 8049bf9:	83 c6 02             	add    $0x2,%esi
 8049bfc:	83 e8 02             	sub    $0x2,%eax
 8049bff:	89 c1                	mov    %eax,%ecx
 8049c01:	c1 e9 02             	shr    $0x2,%ecx
 8049c04:	f3 a5                	rep movsl %ds:(%esi),%es:(%edi)
 8049c06:	ba 00 00 00 00       	mov    $0x0,%edx
 8049c0b:	a8 02                	test   $0x2,%al
 8049c0d:	74 0b                	je     8049c1a <submitr+0x7c2>
 8049c0f:	0f b7 16             	movzwl (%esi),%edx
 8049c12:	66 89 17             	mov    %dx,(%edi)
 8049c15:	ba 02 00 00 00       	mov    $0x2,%edx
 8049c1a:	a8 01                	test   $0x1,%al
 8049c1c:	74 07                	je     8049c25 <submitr+0x7cd>
 8049c1e:	0f b6 04 16          	movzbl (%esi,%edx,1),%eax
 8049c22:	88 04 17             	mov    %al,(%edi,%edx,1)
 8049c25:	89 2c 24             	mov    %ebp,(%esp)
 8049c28:	e8 e3 ec ff ff       	call   8048910 <close@plt>
 8049c2d:	b8 ff ff ff ff       	mov    $0xffffffff,%eax
 8049c32:	81 c4 6c a0 00 00    	add    $0xa06c,%esp
 8049c38:	5b                   	pop    %ebx
 8049c39:	5e                   	pop    %esi
 8049c3a:	5f                   	pop    %edi
 8049c3b:	5d                   	pop    %ebp
 8049c3c:	c3                   	ret    

08049c3d <init_timeout>:
 8049c3d:	53                   	push   %ebx
 8049c3e:	83 ec 18             	sub    $0x18,%esp
 8049c41:	8b 5c 24 20          	mov    0x20(%esp),%ebx
 8049c45:	85 db                	test   %ebx,%ebx
 8049c47:	74 25                	je     8049c6e <init_timeout+0x31>
 8049c49:	c7 44 24 04 2c 94 04 	movl   $0x804942c,0x4(%esp)
 8049c50:	08 
 8049c51:	c7 04 24 0e 00 00 00 	movl   $0xe,(%esp)
 8049c58:	e8 73 eb ff ff       	call   80487d0 <signal@plt>
 8049c5d:	89 d8                	mov    %ebx,%eax
 8049c5f:	c1 f8 1f             	sar    $0x1f,%eax
 8049c62:	f7 d0                	not    %eax
 8049c64:	21 c3                	and    %eax,%ebx
 8049c66:	89 1c 24             	mov    %ebx,(%esp)
 8049c69:	e8 82 eb ff ff       	call   80487f0 <alarm@plt>
 8049c6e:	83 c4 18             	add    $0x18,%esp
 8049c71:	5b                   	pop    %ebx
 8049c72:	c3                   	ret    

08049c73 <init_driver>:
 8049c73:	57                   	push   %edi
 8049c74:	56                   	push   %esi
 8049c75:	53                   	push   %ebx
 8049c76:	83 ec 20             	sub    $0x20,%esp
 8049c79:	8b 74 24 30          	mov    0x30(%esp),%esi
 8049c7d:	c7 44 24 04 01 00 00 	movl   $0x1,0x4(%esp)
 8049c84:	00 
 8049c85:	c7 04 24 0d 00 00 00 	movl   $0xd,(%esp)
 8049c8c:	e8 3f eb ff ff       	call   80487d0 <signal@plt>
 8049c91:	c7 44 24 04 01 00 00 	movl   $0x1,0x4(%esp)
 8049c98:	00 
 8049c99:	c7 04 24 1d 00 00 00 	movl   $0x1d,(%esp)
 8049ca0:	e8 2b eb ff ff       	call   80487d0 <signal@plt>
 8049ca5:	c7 44 24 04 01 00 00 	movl   $0x1,0x4(%esp)
 8049cac:	00 
 8049cad:	c7 04 24 1d 00 00 00 	movl   $0x1d,(%esp)
 8049cb4:	e8 17 eb ff ff       	call   80487d0 <signal@plt>
 8049cb9:	c7 44 24 08 00 00 00 	movl   $0x0,0x8(%esp)
 8049cc0:	00 
 8049cc1:	c7 44 24 04 01 00 00 	movl   $0x1,0x4(%esp)
 8049cc8:	00 
 8049cc9:	c7 04 24 02 00 00 00 	movl   $0x2,(%esp)
 8049cd0:	e8 fb eb ff ff       	call   80488d0 <socket@plt>
 8049cd5:	89 c3                	mov    %eax,%ebx
 8049cd7:	85 c0                	test   %eax,%eax
 8049cd9:	79 4e                	jns    8049d29 <init_driver+0xb6>
 8049cdb:	c7 06 45 72 72 6f    	movl   $0x6f727245,(%esi)
 8049ce1:	c7 46 04 72 3a 20 43 	movl   $0x43203a72,0x4(%esi)
 8049ce8:	c7 46 08 6c 69 65 6e 	movl   $0x6e65696c,0x8(%esi)
 8049cef:	c7 46 0c 74 20 75 6e 	movl   $0x6e752074,0xc(%esi)
 8049cf6:	c7 46 10 61 62 6c 65 	movl   $0x656c6261,0x10(%esi)
 8049cfd:	c7 46 14 20 74 6f 20 	movl   $0x206f7420,0x14(%esi)
 8049d04:	c7 46 18 63 72 65 61 	movl   $0x61657263,0x18(%esi)
 8049d0b:	c7 46 1c 74 65 20 73 	movl   $0x73206574,0x1c(%esi)
 8049d12:	c7 46 20 6f 63 6b 65 	movl   $0x656b636f,0x20(%esi)
 8049d19:	66 c7 46 24 74 00    	movw   $0x74,0x24(%esi)
 8049d1f:	b8 ff ff ff ff       	mov    $0xffffffff,%eax
 8049d24:	e9 1b 01 00 00       	jmp    8049e44 <init_driver+0x1d1>
 8049d29:	c7 04 24 7c a4 04 08 	movl   $0x804a47c,(%esp)
 8049d30:	e8 ab eb ff ff       	call   80488e0 <gethostbyname@plt>
 8049d35:	85 c0                	test   %eax,%eax
 8049d37:	75 68                	jne    8049da1 <init_driver+0x12e>
 8049d39:	c7 06 45 72 72 6f    	movl   $0x6f727245,(%esi)
 8049d3f:	c7 46 04 72 3a 20 44 	movl   $0x44203a72,0x4(%esi)
 8049d46:	c7 46 08 4e 53 20 69 	movl   $0x6920534e,0x8(%esi)
 8049d4d:	c7 46 0c 73 20 75 6e 	movl   $0x6e752073,0xc(%esi)
 8049d54:	c7 46 10 61 62 6c 65 	movl   $0x656c6261,0x10(%esi)
 8049d5b:	c7 46 14 20 74 6f 20 	movl   $0x206f7420,0x14(%esi)
 8049d62:	c7 46 18 72 65 73 6f 	movl   $0x6f736572,0x18(%esi)
 8049d69:	c7 46 1c 6c 76 65 20 	movl   $0x2065766c,0x1c(%esi)
 8049d70:	c7 46 20 73 65 72 76 	movl   $0x76726573,0x20(%esi)
 8049d77:	c7 46 24 65 72 20 61 	movl   $0x61207265,0x24(%esi)
 8049d7e:	c7 46 28 64 64 72 65 	movl   $0x65726464,0x28(%esi)
 8049d85:	66 c7 46 2c 73 73    	movw   $0x7373,0x2c(%esi)
 8049d8b:	c6 46 2e 00          	movb   $0x0,0x2e(%esi)
 8049d8f:	89 1c 24             	mov    %ebx,(%esp)
 8049d92:	e8 79 eb ff ff       	call   8048910 <close@plt>
 8049d97:	b8 ff ff ff ff       	mov    $0xffffffff,%eax
 8049d9c:	e9 a3 00 00 00       	jmp    8049e44 <init_driver+0x1d1>
 8049da1:	8d 7c 24 10          	lea    0x10(%esp),%edi
 8049da5:	c7 44 24 10 00 00 00 	movl   $0x0,0x10(%esp)
 8049dac:	00 
 8049dad:	c7 44 24 14 00 00 00 	movl   $0x0,0x14(%esp)
 8049db4:	00 
 8049db5:	c7 44 24 18 00 00 00 	movl   $0x0,0x18(%esp)
 8049dbc:	00 
 8049dbd:	c7 44 24 1c 00 00 00 	movl   $0x0,0x1c(%esp)
 8049dc4:	00 
 8049dc5:	66 c7 44 24 10 02 00 	movw   $0x2,0x10(%esp)
 8049dcc:	8b 50 0c             	mov    0xc(%eax),%edx
 8049dcf:	89 54 24 08          	mov    %edx,0x8(%esp)
 8049dd3:	8d 54 24 14          	lea    0x14(%esp),%edx
 8049dd7:	89 54 24 04          	mov    %edx,0x4(%esp)
 8049ddb:	8b 40 10             	mov    0x10(%eax),%eax
 8049dde:	8b 00                	mov    (%eax),%eax
 8049de0:	89 04 24             	mov    %eax,(%esp)
 8049de3:	e8 18 ea ff ff       	call   8048800 <bcopy@plt>
 8049de8:	66 c7 44 24 12 3b 6e 	movw   $0x6e3b,0x12(%esp)
 8049def:	c7 44 24 08 10 00 00 	movl   $0x10,0x8(%esp)
 8049df6:	00 
 8049df7:	89 7c 24 04          	mov    %edi,0x4(%esp)
 8049dfb:	89 1c 24             	mov    %ebx,(%esp)
 8049dfe:	e8 fd ea ff ff       	call   8048900 <connect@plt>
 8049e03:	85 c0                	test   %eax,%eax
 8049e05:	79 27                	jns    8049e2e <init_driver+0x1bb>
 8049e07:	c7 44 24 08 7c a4 04 	movl   $0x804a47c,0x8(%esp)
 8049e0e:	08 
 8049e0f:	c7 44 24 04 3c a4 04 	movl   $0x804a43c,0x4(%esp)
 8049e16:	08 
 8049e17:	89 34 24             	mov    %esi,(%esp)
 8049e1a:	e8 a1 ea ff ff       	call   80488c0 <sprintf@plt>
 8049e1f:	89 1c 24             	mov    %ebx,(%esp)
 8049e22:	e8 e9 ea ff ff       	call   8048910 <close@plt>
 8049e27:	b8 ff ff ff ff       	mov    $0xffffffff,%eax
 8049e2c:	eb 16                	jmp    8049e44 <init_driver+0x1d1>
 8049e2e:	89 1c 24             	mov    %ebx,(%esp)
 8049e31:	e8 da ea ff ff       	call   8048910 <close@plt>
 8049e36:	66 c7 06 4f 4b       	movw   $0x4b4f,(%esi)
 8049e3b:	c6 46 02 00          	movb   $0x0,0x2(%esi)
 8049e3f:	b8 00 00 00 00       	mov    $0x0,%eax
 8049e44:	83 c4 20             	add    $0x20,%esp
 8049e47:	5b                   	pop    %ebx
 8049e48:	5e                   	pop    %esi
 8049e49:	5f                   	pop    %edi
 8049e4a:	c3                   	ret    

08049e4b <driver_post>:
 8049e4b:	53                   	push   %ebx
 8049e4c:	83 ec 28             	sub    $0x28,%esp
 8049e4f:	8b 44 24 30          	mov    0x30(%esp),%eax
 8049e53:	8b 5c 24 3c          	mov    0x3c(%esp),%ebx
 8049e57:	83 7c 24 38 00       	cmpl   $0x0,0x38(%esp)
 8049e5c:	74 24                	je     8049e82 <driver_post+0x37>
 8049e5e:	8b 44 24 34          	mov    0x34(%esp),%eax
 8049e62:	89 44 24 04          	mov    %eax,0x4(%esp)
 8049e66:	c7 04 24 94 a4 04 08 	movl   $0x804a494,(%esp)
 8049e6d:	e8 1e e9 ff ff       	call   8048790 <printf@plt>
 8049e72:	66 c7 03 4f 4b       	movw   $0x4b4f,(%ebx)
 8049e77:	c6 43 02 00          	movb   $0x0,0x2(%ebx)
 8049e7b:	b8 00 00 00 00       	mov    $0x0,%eax
 8049e80:	eb 4d                	jmp    8049ecf <driver_post+0x84>
 8049e82:	85 c0                	test   %eax,%eax
 8049e84:	74 3b                	je     8049ec1 <driver_post+0x76>
 8049e86:	80 38 00             	cmpb   $0x0,(%eax)
 8049e89:	74 36                	je     8049ec1 <driver_post+0x76>
 8049e8b:	89 5c 24 18          	mov    %ebx,0x18(%esp)
 8049e8f:	8b 54 24 34          	mov    0x34(%esp),%edx
 8049e93:	89 54 24 14          	mov    %edx,0x14(%esp)
 8049e97:	c7 44 24 10 ab a4 04 	movl   $0x804a4ab,0x10(%esp)
 8049e9e:	08 
 8049e9f:	89 44 24 0c          	mov    %eax,0xc(%esp)
 8049ea3:	c7 44 24 08 b3 a4 04 	movl   $0x804a4b3,0x8(%esp)
 8049eaa:	08 
 8049eab:	c7 44 24 04 6e 3b 00 	movl   $0x3b6e,0x4(%esp)
 8049eb2:	00 
 8049eb3:	c7 04 24 7c a4 04 08 	movl   $0x804a47c,(%esp)
 8049eba:	e8 99 f5 ff ff       	call   8049458 <submitr>
 8049ebf:	eb 0e                	jmp    8049ecf <driver_post+0x84>
 8049ec1:	66 c7 03 4f 4b       	movw   $0x4b4f,(%ebx)
 8049ec6:	c6 43 02 00          	movb   $0x0,0x2(%ebx)
 8049eca:	b8 00 00 00 00       	mov    $0x0,%eax
 8049ecf:	83 c4 28             	add    $0x28,%esp
 8049ed2:	5b                   	pop    %ebx
 8049ed3:	c3                   	ret    
 8049ed4:	90                   	nop
 8049ed5:	90                   	nop
 8049ed6:	90                   	nop
 8049ed7:	90                   	nop
 8049ed8:	90                   	nop
 8049ed9:	90                   	nop
 8049eda:	90                   	nop
 8049edb:	90                   	nop
 8049edc:	90                   	nop
 8049edd:	90                   	nop
 8049ede:	90                   	nop
 8049edf:	90                   	nop

08049ee0 <__libc_csu_fini>:
 8049ee0:	55                   	push   %ebp
 8049ee1:	89 e5                	mov    %esp,%ebp
 8049ee3:	5d                   	pop    %ebp
 8049ee4:	c3                   	ret    
 8049ee5:	8d 74 26 00          	lea    0x0(%esi,%eiz,1),%esi
 8049ee9:	8d bc 27 00 00 00 00 	lea    0x0(%edi,%eiz,1),%edi

08049ef0 <__libc_csu_init>:
 8049ef0:	55                   	push   %ebp
 8049ef1:	89 e5                	mov    %esp,%ebp
 8049ef3:	57                   	push   %edi
 8049ef4:	56                   	push   %esi
 8049ef5:	53                   	push   %ebx
 8049ef6:	e8 4f 00 00 00       	call   8049f4a <__i686.get_pc_thunk.bx>
 8049efb:	81 c3 05 12 00 00    	add    $0x1205,%ebx
 8049f01:	83 ec 1c             	sub    $0x1c,%esp
 8049f04:	e8 3f e8 ff ff       	call   8048748 <_init>
 8049f09:	8d bb 04 ff ff ff    	lea    -0xfc(%ebx),%edi
 8049f0f:	8d 83 00 ff ff ff    	lea    -0x100(%ebx),%eax
 8049f15:	29 c7                	sub    %eax,%edi
 8049f17:	c1 ff 02             	sar    $0x2,%edi
 8049f1a:	85 ff                	test   %edi,%edi
 8049f1c:	74 24                	je     8049f42 <__libc_csu_init+0x52>
 8049f1e:	31 f6                	xor    %esi,%esi
 8049f20:	8b 45 10             	mov    0x10(%ebp),%eax
 8049f23:	89 44 24 08          	mov    %eax,0x8(%esp)
 8049f27:	8b 45 0c             	mov    0xc(%ebp),%eax
 8049f2a:	89 44 24 04          	mov    %eax,0x4(%esp)
 8049f2e:	8b 45 08             	mov    0x8(%ebp),%eax
 8049f31:	89 04 24             	mov    %eax,(%esp)
 8049f34:	ff 94 b3 00 ff ff ff 	call   *-0x100(%ebx,%esi,4)
 8049f3b:	83 c6 01             	add    $0x1,%esi
 8049f3e:	39 fe                	cmp    %edi,%esi
 8049f40:	72 de                	jb     8049f20 <__libc_csu_init+0x30>
 8049f42:	83 c4 1c             	add    $0x1c,%esp
 8049f45:	5b                   	pop    %ebx
 8049f46:	5e                   	pop    %esi
 8049f47:	5f                   	pop    %edi
 8049f48:	5d                   	pop    %ebp
 8049f49:	c3                   	ret    

08049f4a <__i686.get_pc_thunk.bx>:
 8049f4a:	8b 1c 24             	mov    (%esp),%ebx
 8049f4d:	c3                   	ret    
 8049f4e:	90                   	nop
 8049f4f:	90                   	nop

Disassembly of section .fini:

08049f50 <_fini>:
 8049f50:	55                   	push   %ebp
 8049f51:	89 e5                	mov    %esp,%ebp
 8049f53:	53                   	push   %ebx
 8049f54:	83 ec 04             	sub    $0x4,%esp
 8049f57:	e8 00 00 00 00       	call   8049f5c <_fini+0xc>
 8049f5c:	5b                   	pop    %ebx
 8049f5d:	81 c3 a4 11 00 00    	add    $0x11a4,%ebx
 8049f63:	59                   	pop    %ecx
 8049f64:	5b                   	pop    %ebx
 8049f65:	c9                   	leave  
 8049f66:	c3                   	ret    
